	.section	__TEXT,__text,regular,pure_instructions
	.macosx_version_min 10, 11
	.globl	__Z6powmodxx
	.align	4, 0x90
__Z6powmodxx:                           ## @_Z6powmodxx
	.cfi_startproc
## BB#0:
	pushq	%rbp
Ltmp0:
	.cfi_def_cfa_offset 16
Ltmp1:
	.cfi_offset %rbp, -16
	movq	%rsp, %rbp
Ltmp2:
	.cfi_def_cfa_register %rbp
	movl	$1000000007, %eax       ## imm = 0x3B9ACA07
	movl	%eax, %ecx
	movq	%rdi, -8(%rbp)
	movq	%rsi, -16(%rbp)
	movq	$1, -24(%rbp)
	movq	-8(%rbp), %rax
	cqto
	idivq	%rcx
	movq	%rdx, -8(%rbp)
LBB0_1:                                 ## =>This Inner Loop Header: Depth=1
	cmpq	$0, -16(%rbp)
	je	LBB0_6
## BB#2:                                ##   in Loop: Header=BB0_1 Depth=1
	movq	-16(%rbp), %rax
	andq	$1, %rax
	cmpq	$0, %rax
	je	LBB0_4
## BB#3:                                ##   in Loop: Header=BB0_1 Depth=1
	movl	$1000000007, %eax       ## imm = 0x3B9ACA07
	movl	%eax, %ecx
	movq	-24(%rbp), %rdx
	imulq	-8(%rbp), %rdx
	movq	%rdx, %rax
	cqto
	idivq	%rcx
	movq	%rdx, -24(%rbp)
LBB0_4:                                 ##   in Loop: Header=BB0_1 Depth=1
	movl	$1000000007, %eax       ## imm = 0x3B9ACA07
	movl	%eax, %ecx
	movq	-8(%rbp), %rdx
	imulq	-8(%rbp), %rdx
	movq	%rdx, %rax
	cqto
	idivq	%rcx
	movq	%rdx, -8(%rbp)
## BB#5:                                ##   in Loop: Header=BB0_1 Depth=1
	movq	-16(%rbp), %rax
	sarq	$1, %rax
	movq	%rax, -16(%rbp)
	jmp	LBB0_1
LBB0_6:
	movq	-24(%rbp), %rax
	popq	%rbp
	retq
	.cfi_endproc

	.section	__TEXT,__StaticInit,regular,pure_instructions
	.align	4, 0x90
___cxx_global_var_init:                 ## @__cxx_global_var_init
	.cfi_startproc
## BB#0:
	pushq	%rbp
Ltmp3:
	.cfi_def_cfa_offset 16
Ltmp4:
	.cfi_offset %rbp, -16
	movq	%rsp, %rbp
Ltmp5:
	.cfi_def_cfa_register %rbp
	leaq	_pos(%rip), %rax
	movq	%rax, -40(%rbp)         ## 8-byte Spill
LBB1_1:                                 ## =>This Inner Loop Header: Depth=1
	movq	-40(%rbp), %rax         ## 8-byte Reload
	leaq	_pos(%rip), %rcx
	addq	$1224000, %rcx          ## imm = 0x12AD40
	movq	%rax, -32(%rbp)
	movq	-32(%rbp), %rdx
	movq	%rdx, -24(%rbp)
	movq	-24(%rbp), %rdx
	movq	%rdx, -16(%rbp)
	movq	-16(%rbp), %rsi
	movq	%rsi, -8(%rbp)
	movq	-8(%rbp), %rsi
	movl	$0, (%rsi)
	movl	$0, 4(%rsi)
	movl	$0, 8(%rdx)
	addq	$12, %rax
	cmpq	%rcx, %rax
	movq	%rax, -40(%rbp)         ## 8-byte Spill
	jne	LBB1_1
## BB#2:
	popq	%rbp
	retq
	.cfi_endproc

	.align	4, 0x90
___cxx_global_var_init.1:               ## @__cxx_global_var_init.1
	.cfi_startproc
## BB#0:
	pushq	%rbp
Ltmp6:
	.cfi_def_cfa_offset 16
Ltmp7:
	.cfi_offset %rbp, -16
	movq	%rsp, %rbp
Ltmp8:
	.cfi_def_cfa_register %rbp
	pushq	%r14
	pushq	%rbx
	subq	$320, %rsp              ## imm = 0x140
Ltmp9:
	.cfi_offset %rbx, -32
Ltmp10:
	.cfi_offset %r14, -24
	leaq	_vec(%rip), %rax
	movq	%rax, -312(%rbp)        ## 8-byte Spill
LBB2_1:                                 ## =>This Inner Loop Header: Depth=1
	movq	-312(%rbp), %rax        ## 8-byte Reload
	leaq	-192(%rbp), %rcx
	leaq	-216(%rbp), %rdx
	leaq	-272(%rbp), %rsi
	leaq	-152(%rbp), %rdi
	leaq	-264(%rbp), %r8
	leaq	-104(%rbp), %r9
	leaq	-256(%rbp), %r10
	leaq	-56(%rbp), %r11
	movq	%rax, -288(%rbp)
	movq	-288(%rbp), %rbx
	movq	%rbx, -280(%rbp)
	movq	-280(%rbp), %rbx
	movq	%rbx, -248(%rbp)
	movq	-248(%rbp), %rbx
	movq	%rbx, %r14
	movq	%r14, -240(%rbp)
	movq	%r11, -40(%rbp)
	movq	$-1, -48(%rbp)
	movq	-40(%rbp), %r11
	movq	-48(%rbp), %r14
	movq	%r11, -24(%rbp)
	movq	%r14, -32(%rbp)
	movq	-24(%rbp), %r11
	movq	$0, (%r11)
	movq	-56(%rbp), %r11
	movq	%r11, -256(%rbp)
	movq	%r10, -64(%rbp)
	movq	$0, (%rbx)
	movq	%r9, -88(%rbp)
	movq	$-1, -96(%rbp)
	movq	-88(%rbp), %r9
	movq	-96(%rbp), %r10
	movq	%r9, -72(%rbp)
	movq	%r10, -80(%rbp)
	movq	-72(%rbp), %r9
	movq	$0, (%r9)
	movq	-104(%rbp), %r9
	movq	%r9, -264(%rbp)
	movq	%r8, -112(%rbp)
	movq	$0, 8(%rbx)
	addq	$16, %rbx
	movq	%rdi, -136(%rbp)
	movq	$-1, -144(%rbp)
	movq	-136(%rbp), %rdi
	movq	-144(%rbp), %r8
	movq	%rdi, -120(%rbp)
	movq	%r8, -128(%rbp)
	movq	-120(%rbp), %rdi
	movq	$0, (%rdi)
	movq	-152(%rbp), %rdi
	movq	%rdi, -272(%rbp)
	movq	%rsi, -160(%rbp)
	movq	%rbx, -224(%rbp)
	movq	$0, -232(%rbp)
	movq	-224(%rbp), %rsi
	movq	-232(%rbp), %rdi
	movq	%rsi, -208(%rbp)
	movq	%rdi, -216(%rbp)
	movq	-208(%rbp), %rsi
	movq	%rdx, -200(%rbp)
	movq	-200(%rbp), %rdx
	movq	(%rdx), %rdx
	movq	%rsi, -184(%rbp)
	movq	%rdx, -192(%rbp)
	movq	-184(%rbp), %rdx
	movq	%rdx, %rsi
	movq	%rsi, -176(%rbp)
	movq	%rcx, -168(%rbp)
	movq	-168(%rbp), %rcx
	movq	(%rcx), %rcx
	movq	%rcx, (%rdx)
	movq	%rax, -320(%rbp)        ## 8-byte Spill
## BB#2:                                ##   in Loop: Header=BB2_1 Depth=1
	leaq	_vec(%rip), %rax
	addq	$2448000, %rax          ## imm = 0x255A80
	movq	-320(%rbp), %rcx        ## 8-byte Reload
	addq	$24, %rcx
	cmpq	%rax, %rcx
	movq	%rcx, -312(%rbp)        ## 8-byte Spill
	jne	LBB2_1
## BB#3:
	leaq	___cxx_global_array_dtor(%rip), %rdi
	xorl	%eax, %eax
	movl	%eax, %esi
	movq	___dso_handle@GOTPCREL(%rip), %rdx
	callq	___cxa_atexit
	movl	%eax, -324(%rbp)        ## 4-byte Spill
	addq	$320, %rsp              ## imm = 0x140
	popq	%rbx
	popq	%r14
	popq	%rbp
	retq
	.cfi_endproc

	.section	__TEXT,__textcoal_nt,coalesced,pure_instructions
	.globl	__ZNSt3__16vectorIiNS_9allocatorIiEEED1Ev
	.weak_def_can_be_hidden	__ZNSt3__16vectorIiNS_9allocatorIiEEED1Ev
	.align	4, 0x90
__ZNSt3__16vectorIiNS_9allocatorIiEEED1Ev: ## @_ZNSt3__16vectorIiNS_9allocatorIiEEED1Ev
	.cfi_startproc
## BB#0:
	pushq	%rbp
Ltmp11:
	.cfi_def_cfa_offset 16
Ltmp12:
	.cfi_offset %rbp, -16
	movq	%rsp, %rbp
Ltmp13:
	.cfi_def_cfa_register %rbp
	subq	$16, %rsp
	movq	%rdi, -8(%rbp)
	movq	-8(%rbp), %rdi
	callq	__ZNSt3__16vectorIiNS_9allocatorIiEEED2Ev
	addq	$16, %rsp
	popq	%rbp
	retq
	.cfi_endproc

	.private_extern	___clang_call_terminate
	.globl	___clang_call_terminate
	.weak_def_can_be_hidden	___clang_call_terminate
	.align	4, 0x90
___clang_call_terminate:                ## @__clang_call_terminate
## BB#0:
	pushq	%rax
	callq	___cxa_begin_catch
	movq	%rax, (%rsp)            ## 8-byte Spill
	callq	__ZSt9terminatev

	.section	__TEXT,__StaticInit,regular,pure_instructions
	.align	4, 0x90
___cxx_global_array_dtor:               ## @__cxx_global_array_dtor
Lfunc_begin0:
	.cfi_startproc
	.cfi_personality 155, ___gxx_personality_v0
	.cfi_lsda 16, Lexception0
## BB#0:
	pushq	%rbp
Ltmp20:
	.cfi_def_cfa_offset 16
Ltmp21:
	.cfi_offset %rbp, -16
	movq	%rsp, %rbp
Ltmp22:
	.cfi_def_cfa_register %rbp
	subq	$64, %rsp
	leaq	_vec(%rip), %rax
	addq	$2448000, %rax          ## imm = 0x255A80
	movq	%rdi, -8(%rbp)
	movq	%rax, -32(%rbp)         ## 8-byte Spill
LBB5_1:                                 ## =>This Inner Loop Header: Depth=1
	movq	-32(%rbp), %rax         ## 8-byte Reload
	addq	$-24, %rax
Ltmp14:
	movq	%rax, %rdi
	movq	%rax, -40(%rbp)         ## 8-byte Spill
	callq	__ZNSt3__16vectorIiNS_9allocatorIiEEED1Ev
Ltmp15:
	jmp	LBB5_2
LBB5_2:                                 ##   in Loop: Header=BB5_1 Depth=1
	leaq	_vec(%rip), %rax
	movq	-40(%rbp), %rcx         ## 8-byte Reload
	cmpq	%rax, %rcx
	movq	%rcx, -32(%rbp)         ## 8-byte Spill
	jne	LBB5_1
## BB#3:
	addq	$64, %rsp
	popq	%rbp
	retq
LBB5_4:
Ltmp16:
	leaq	_vec(%rip), %rcx
	movl	%edx, %esi
	movq	%rax, -16(%rbp)
	movl	%esi, -20(%rbp)
	movq	-40(%rbp), %rax         ## 8-byte Reload
	cmpq	%rax, %rcx
	movq	%rax, -48(%rbp)         ## 8-byte Spill
	je	LBB5_7
LBB5_5:                                 ## =>This Inner Loop Header: Depth=1
	movq	-48(%rbp), %rax         ## 8-byte Reload
	addq	$-24, %rax
Ltmp17:
	movq	%rax, %rdi
	movq	%rax, -56(%rbp)         ## 8-byte Spill
	callq	__ZNSt3__16vectorIiNS_9allocatorIiEEED1Ev
Ltmp18:
	jmp	LBB5_6
LBB5_6:                                 ##   in Loop: Header=BB5_5 Depth=1
	leaq	_vec(%rip), %rax
	movq	-56(%rbp), %rcx         ## 8-byte Reload
	cmpq	%rax, %rcx
	movq	%rcx, -48(%rbp)         ## 8-byte Spill
	jne	LBB5_5
LBB5_7:
	jmp	LBB5_8
LBB5_8:
	movq	-16(%rbp), %rdi
	callq	__Unwind_Resume
LBB5_9:
Ltmp19:
	movl	%edx, %ecx
	movq	%rax, %rdi
	movl	%ecx, -60(%rbp)         ## 4-byte Spill
	callq	___clang_call_terminate
Lfunc_end0:
	.cfi_endproc
	.section	__TEXT,__gcc_except_tab
	.align	2
GCC_except_table5:
Lexception0:
	.byte	255                     ## @LPStart Encoding = omit
	.byte	155                     ## @TType Encoding = indirect pcrel sdata4
	.asciz	"\257\200"              ## @TType base offset
	.byte	3                       ## Call site Encoding = udata4
	.byte	39                      ## Call site table length
Lset0 = Ltmp14-Lfunc_begin0             ## >> Call Site 1 <<
	.long	Lset0
Lset1 = Ltmp15-Ltmp14                   ##   Call between Ltmp14 and Ltmp15
	.long	Lset1
Lset2 = Ltmp16-Lfunc_begin0             ##     jumps to Ltmp16
	.long	Lset2
	.byte	0                       ##   On action: cleanup
Lset3 = Ltmp17-Lfunc_begin0             ## >> Call Site 2 <<
	.long	Lset3
Lset4 = Ltmp18-Ltmp17                   ##   Call between Ltmp17 and Ltmp18
	.long	Lset4
Lset5 = Ltmp19-Lfunc_begin0             ##     jumps to Ltmp19
	.long	Lset5
	.byte	1                       ##   On action: 1
Lset6 = Ltmp18-Lfunc_begin0             ## >> Call Site 3 <<
	.long	Lset6
Lset7 = Lfunc_end0-Ltmp18               ##   Call between Ltmp18 and Lfunc_end0
	.long	Lset7
	.long	0                       ##     has no landing pad
	.byte	0                       ##   On action: cleanup
	.byte	1                       ## >> Action Record 1 <<
                                        ##   Catch TypeInfo 1
	.byte	0                       ##   No further actions
                                        ## >> Catch TypeInfos <<
	.long	0                       ## TypeInfo 1
	.align	2

	.section	__TEXT,__text,regular,pure_instructions
	.globl	__Z7buildSAPc
	.align	4, 0x90
__Z7buildSAPc:                          ## @_Z7buildSAPc
	.cfi_startproc
## BB#0:
	pushq	%rbp
Ltmp23:
	.cfi_def_cfa_offset 16
Ltmp24:
	.cfi_offset %rbp, -16
	movq	%rsp, %rbp
Ltmp25:
	.cfi_def_cfa_register %rbp
	subq	$352, %rsp              ## imm = 0x160
	movq	%rdi, -280(%rbp)
	movl	$0, -284(%rbp)
LBB6_1:                                 ## =>This Inner Loop Header: Depth=1
	movl	-284(%rbp), %eax
	cmpl	_n(%rip), %eax
	jge	LBB6_4
## BB#2:                                ##   in Loop: Header=BB6_1 Depth=1
	leaq	_rk(%rip), %rax
	movslq	-284(%rbp), %rcx
	movq	-280(%rbp), %rdx
	movsbl	(%rdx,%rcx), %esi
	movslq	-284(%rbp), %rcx
	movl	%esi, (%rax,%rcx,4)
## BB#3:                                ##   in Loop: Header=BB6_1 Depth=1
	movl	-284(%rbp), %eax
	addl	$1, %eax
	movl	%eax, -284(%rbp)
	jmp	LBB6_1
LBB6_4:
	movl	$0, -288(%rbp)
LBB6_5:                                 ## =>This Loop Header: Depth=1
                                        ##     Child Loop BB6_7 Depth 2
                                        ##     Child Loop BB6_11 Depth 2
	cmpl	$19, -288(%rbp)
	jge	LBB6_20
## BB#6:                                ##   in Loop: Header=BB6_5 Depth=1
	movl	$0, -292(%rbp)
LBB6_7:                                 ##   Parent Loop BB6_5 Depth=1
                                        ## =>  This Inner Loop Header: Depth=2
	movl	-292(%rbp), %eax
	cmpl	_n(%rip), %eax
	jge	LBB6_10
## BB#8:                                ##   in Loop: Header=BB6_7 Depth=2
	leaq	-304(%rbp), %rax
	movslq	-292(%rbp), %rcx
	movl	%ecx, %edx
	leaq	(%rcx,%rcx,2), %rsi
	leaq	_pos(%rip), %rdi
	leaq	(%rdi,%rsi,4), %rsi
	leaq	_rk(%rip), %rdi
	movl	(%rdi,%rcx,4), %r8d
	movb	-288(%rbp), %cl
	movl	$1, %r9d
	shll	%cl, %r9d
	addl	%r9d, %edx
	movslq	%edx, %r10
	movl	(%rdi,%r10,4), %edx
	movl	%r8d, -268(%rbp)
	movl	%edx, -272(%rbp)
	leaq	-264(%rbp), %rdi
	movq	%rdi, -240(%rbp)
	leaq	-268(%rbp), %rdi
	movq	%rdi, -248(%rbp)
	leaq	-272(%rbp), %rdi
	movq	%rdi, -256(%rbp)
	movq	-240(%rbp), %r10
	movq	-248(%rbp), %r11
	movq	%r10, -216(%rbp)
	movq	%r11, -224(%rbp)
	movq	%rdi, -232(%rbp)
	movq	-216(%rbp), %rdi
	movq	-224(%rbp), %r10
	movl	(%r10), %edx
	movl	%edx, (%rdi)
	movq	-232(%rbp), %r10
	movl	(%r10), %edx
	movl	%edx, 4(%rdi)
	movq	-264(%rbp), %rdi
	movq	%rdi, -312(%rbp)
	movl	-292(%rbp), %edx
	movq	%rdi, -104(%rbp)
	movl	%edx, -108(%rbp)
	leaq	-96(%rbp), %rdi
	movq	%rdi, -64(%rbp)
	leaq	-104(%rbp), %rdi
	movq	%rdi, -72(%rbp)
	leaq	-108(%rbp), %rdi
	movq	%rdi, -80(%rbp)
	movq	-64(%rbp), %r10
	movq	-72(%rbp), %r11
	movq	%r10, -40(%rbp)
	movq	%r11, -48(%rbp)
	movq	%rdi, -56(%rbp)
	movq	-40(%rbp), %rdi
	movq	-48(%rbp), %r10
	movq	(%r10), %r10
	movq	%r10, (%rdi)
	movq	-56(%rbp), %r10
	movl	(%r10), %edx
	movl	%edx, 8(%rdi)
	movl	-88(%rbp), %edx
	movl	%edx, -120(%rbp)
	movq	-96(%rbp), %rdi
	movq	%rdi, -128(%rbp)
	movq	-128(%rbp), %rdi
	movl	-120(%rbp), %edx
	movl	%edx, -320(%rbp)
	movq	%rdi, -328(%rbp)
	movq	-328(%rbp), %rdi
	movq	%rdi, -304(%rbp)
	movl	-320(%rbp), %edx
	movl	%edx, -296(%rbp)
	movq	%rsi, -24(%rbp)
	movq	%rax, -32(%rbp)
	movq	-24(%rbp), %rax
	movq	-32(%rbp), %rsi
	movq	%rax, -8(%rbp)
	movq	%rsi, -16(%rbp)
	movq	-8(%rbp), %rsi
	movq	-16(%rbp), %rdi
	movl	(%rdi), %edx
	movl	%edx, (%rsi)
	movq	-16(%rbp), %rdi
	movl	4(%rdi), %edx
	movl	%edx, 4(%rsi)
	movq	-32(%rbp), %rsi
	movl	8(%rsi), %edx
	movl	%edx, 8(%rax)
## BB#9:                                ##   in Loop: Header=BB6_7 Depth=2
	movl	-292(%rbp), %eax
	addl	$1, %eax
	movl	%eax, -292(%rbp)
	jmp	LBB6_7
LBB6_10:                                ##   in Loop: Header=BB6_5 Depth=1
	leaq	-136(%rbp), %rdx
	leaq	_pos(%rip), %rax
	movslq	_n(%rip), %rcx
	imulq	$12, %rcx, %rcx
	movq	%rax, %rsi
	addq	%rcx, %rsi
	movq	%rax, -160(%rbp)
	movq	%rsi, -168(%rbp)
	movq	-160(%rbp), %rax
	movq	-168(%rbp), %rcx
	movq	%rax, -144(%rbp)
	movq	%rcx, -152(%rbp)
	movq	-144(%rbp), %rdi
	movq	-152(%rbp), %rsi
	callq	__ZNSt3__16__sortIRNS_6__lessINS_4pairINS2_IiiEEiEES4_EEPS4_EEvT0_S8_T_
	movl	$0, -332(%rbp)
	movl	$0, -336(%rbp)
LBB6_11:                                ##   Parent Loop BB6_5 Depth=1
                                        ## =>  This Inner Loop Header: Depth=2
	movl	-336(%rbp), %eax
	cmpl	_n(%rip), %eax
	jge	LBB6_16
## BB#12:                               ##   in Loop: Header=BB6_11 Depth=2
	xorl	%eax, %eax
	movb	%al, %cl
	leaq	_pos(%rip), %rdx
	leaq	_rk(%rip), %rsi
	movl	-332(%rbp), %eax
	addl	$1, %eax
	movslq	-336(%rbp), %rdi
	imulq	$12, %rdi, %rdi
	movq	%rdx, %r8
	addq	%rdi, %r8
	movslq	8(%r8), %rdi
	movl	%eax, (%rsi,%rdi,4)
	movslq	-336(%rbp), %rsi
	imulq	$12, %rsi, %rsi
	movq	%rdx, %rdi
	addq	%rsi, %rdi
	movl	-336(%rbp), %eax
	addl	$1, %eax
	movslq	%eax, %rsi
	imulq	$12, %rsi, %rsi
	addq	%rsi, %rdx
	movq	%rdi, -200(%rbp)
	movq	%rdx, -208(%rbp)
	movq	-200(%rbp), %rdx
	movq	-208(%rbp), %rsi
	movq	%rdx, -184(%rbp)
	movq	%rsi, -192(%rbp)
	movq	-184(%rbp), %rdx
	movl	(%rdx), %eax
	movq	-192(%rbp), %rdx
	cmpl	(%rdx), %eax
	movb	%cl, -341(%rbp)         ## 1-byte Spill
	jne	LBB6_14
## BB#13:                               ##   in Loop: Header=BB6_11 Depth=2
	movq	-184(%rbp), %rax
	movl	4(%rax), %ecx
	movq	-192(%rbp), %rax
	cmpl	4(%rax), %ecx
	sete	%dl
	movb	%dl, -341(%rbp)         ## 1-byte Spill
LBB6_14:                                ## %_ZNSt3__1neIiiEEbRKNS_4pairIT_T0_EES6_.exit
                                        ##   in Loop: Header=BB6_11 Depth=2
	movb	-341(%rbp), %al         ## 1-byte Reload
	xorb	$-1, %al
	andb	$1, %al
	movzbl	%al, %ecx
	addl	-332(%rbp), %ecx
	movl	%ecx, -332(%rbp)
## BB#15:                               ##   in Loop: Header=BB6_11 Depth=2
	movl	-336(%rbp), %eax
	addl	$1, %eax
	movl	%eax, -336(%rbp)
	jmp	LBB6_11
LBB6_16:                                ##   in Loop: Header=BB6_5 Depth=1
	movl	-332(%rbp), %eax
	cmpl	_n(%rip), %eax
	jne	LBB6_18
## BB#17:
	jmp	LBB6_20
LBB6_18:                                ##   in Loop: Header=BB6_5 Depth=1
	jmp	LBB6_19
LBB6_19:                                ##   in Loop: Header=BB6_5 Depth=1
	movl	-288(%rbp), %eax
	addl	$1, %eax
	movl	%eax, -288(%rbp)
	jmp	LBB6_5
LBB6_20:
	movl	$0, -340(%rbp)
LBB6_21:                                ## =>This Inner Loop Header: Depth=1
	movl	-340(%rbp), %eax
	cmpl	_n(%rip), %eax
	jge	LBB6_24
## BB#22:                               ##   in Loop: Header=BB6_21 Depth=1
	leaq	_sa(%rip), %rax
	leaq	_rk(%rip), %rcx
	movl	-340(%rbp), %edx
	movslq	-340(%rbp), %rsi
	movslq	(%rcx,%rsi,4), %rcx
	movl	%edx, (%rax,%rcx,4)
## BB#23:                               ##   in Loop: Header=BB6_21 Depth=1
	movl	-340(%rbp), %eax
	addl	$1, %eax
	movl	%eax, -340(%rbp)
	jmp	LBB6_21
LBB6_24:
	addq	$352, %rsp              ## imm = 0x160
	popq	%rbp
	retq
	.cfi_endproc

	.globl	__Z6heightv
	.align	4, 0x90
__Z6heightv:                            ## @_Z6heightv
	.cfi_startproc
## BB#0:
	pushq	%rbp
Ltmp26:
	.cfi_def_cfa_offset 16
Ltmp27:
	.cfi_offset %rbp, -16
	movq	%rsp, %rbp
Ltmp28:
	.cfi_def_cfa_register %rbp
	movl	$0, -76(%rbp)
	movl	$0, -80(%rbp)
LBB7_1:                                 ## =>This Loop Header: Depth=1
                                        ##     Child Loop BB7_8 Depth 2
	movl	-80(%rbp), %eax
	cmpl	_n(%rip), %eax
	jge	LBB7_13
## BB#2:                                ##   in Loop: Header=BB7_1 Depth=1
	leaq	_rk(%rip), %rax
	movslq	-80(%rbp), %rcx
	cmpl	$1, (%rax,%rcx,4)
	jne	LBB7_4
## BB#3:                                ##   in Loop: Header=BB7_1 Depth=1
	jmp	LBB7_12
LBB7_4:                                 ##   in Loop: Header=BB7_1 Depth=1
	leaq	-32(%rbp), %rax
	leaq	-88(%rbp), %rcx
	leaq	-84(%rbp), %rdx
	movl	$0, -84(%rbp)
	movl	-76(%rbp), %esi
	subl	$1, %esi
	movl	%esi, -88(%rbp)
	movq	%rdx, -56(%rbp)
	movq	%rcx, -64(%rbp)
	movq	-56(%rbp), %rcx
	movq	-64(%rbp), %rdx
	movq	%rcx, -40(%rbp)
	movq	%rdx, -48(%rbp)
	movq	-40(%rbp), %rcx
	movq	-48(%rbp), %rdx
	movq	%rax, -8(%rbp)
	movq	%rcx, -16(%rbp)
	movq	%rdx, -24(%rbp)
	movq	-16(%rbp), %rax
	movl	(%rax), %esi
	movq	-24(%rbp), %rax
	cmpl	(%rax), %esi
	jge	LBB7_6
## BB#5:                                ##   in Loop: Header=BB7_1 Depth=1
	movq	-48(%rbp), %rax
	movq	%rax, -104(%rbp)        ## 8-byte Spill
	jmp	LBB7_7
LBB7_6:                                 ##   in Loop: Header=BB7_1 Depth=1
	movq	-40(%rbp), %rax
	movq	%rax, -104(%rbp)        ## 8-byte Spill
LBB7_7:                                 ## %_ZNSt3__13maxIiEERKT_S3_S3_.exit
                                        ##   in Loop: Header=BB7_1 Depth=1
	movq	-104(%rbp), %rax        ## 8-byte Reload
	leaq	_sa(%rip), %rcx
	leaq	_rk(%rip), %rdx
	movl	(%rax), %esi
	movl	%esi, -76(%rbp)
	movslq	-80(%rbp), %rax
	movl	(%rdx,%rax,4), %esi
	subl	$1, %esi
	movslq	%esi, %rax
	movl	(%rcx,%rax,4), %esi
	movl	%esi, -92(%rbp)
LBB7_8:                                 ##   Parent Loop BB7_1 Depth=1
                                        ## =>  This Inner Loop Header: Depth=2
	leaq	_s(%rip), %rax
	movl	-80(%rbp), %ecx
	addl	-76(%rbp), %ecx
	movslq	%ecx, %rdx
	movsbl	(%rax,%rdx), %ecx
	movl	-92(%rbp), %esi
	addl	-76(%rbp), %esi
	movslq	%esi, %rdx
	movsbl	(%rax,%rdx), %esi
	cmpl	%esi, %ecx
	jne	LBB7_11
## BB#9:                                ##   in Loop: Header=BB7_8 Depth=2
	jmp	LBB7_10
LBB7_10:                                ##   in Loop: Header=BB7_8 Depth=2
	movl	-76(%rbp), %eax
	addl	$1, %eax
	movl	%eax, -76(%rbp)
	jmp	LBB7_8
LBB7_11:                                ##   in Loop: Header=BB7_1 Depth=1
	leaq	_ht(%rip), %rax
	leaq	_rk(%rip), %rcx
	movl	-76(%rbp), %edx
	movslq	-80(%rbp), %rsi
	movslq	(%rcx,%rsi,4), %rcx
	movl	%edx, (%rax,%rcx,4)
LBB7_12:                                ##   in Loop: Header=BB7_1 Depth=1
	movl	-80(%rbp), %eax
	addl	$1, %eax
	movl	%eax, -80(%rbp)
	jmp	LBB7_1
LBB7_13:
	popq	%rbp
	retq
	.cfi_endproc

	.globl	_main
	.align	4, 0x90
_main:                                  ## @main
	.cfi_startproc
## BB#0:
	pushq	%rbp
Ltmp29:
	.cfi_def_cfa_offset 16
Ltmp30:
	.cfi_offset %rbp, -16
	movq	%rsp, %rbp
Ltmp31:
	.cfi_def_cfa_register %rbp
	subq	$96, %rsp
	leaq	L_.str(%rip), %rdi
	leaq	-8(%rbp), %rsi
	movl	$0, -4(%rbp)
	movb	$0, %al
	callq	_scanf
	movl	$0, -12(%rbp)
	movl	%eax, -32(%rbp)         ## 4-byte Spill
LBB8_1:                                 ## =>This Loop Header: Depth=1
                                        ##     Child Loop BB8_3 Depth 2
	movl	-12(%rbp), %eax
	cmpl	-8(%rbp), %eax
	jge	LBB8_8
## BB#2:                                ##   in Loop: Header=BB8_1 Depth=1
	leaq	L_.str.2(%rip), %rdi
	leaq	_s(%rip), %rsi
	leaq	_rk(%rip), %rax
	xorl	%ecx, %ecx
	movl	$408000, %edx           ## imm = 0x639C0
	movl	%edx, %r8d
	leaq	_ht(%rip), %r9
	leaq	_sa(%rip), %r10
	movq	%rdi, -40(%rbp)         ## 8-byte Spill
	movq	%r10, %rdi
	movq	%rsi, -48(%rbp)         ## 8-byte Spill
	movl	%ecx, %esi
	movq	%r8, %rdx
	movq	%r9, -56(%rbp)          ## 8-byte Spill
	movq	%r8, -64(%rbp)          ## 8-byte Spill
	movq	%rax, -72(%rbp)         ## 8-byte Spill
	movl	%ecx, -76(%rbp)         ## 4-byte Spill
	callq	_memset
	movq	-56(%rbp), %rdi         ## 8-byte Reload
	movl	-76(%rbp), %esi         ## 4-byte Reload
	movq	-64(%rbp), %rdx         ## 8-byte Reload
	callq	_memset
	movq	-72(%rbp), %rdi         ## 8-byte Reload
	movl	-76(%rbp), %esi         ## 4-byte Reload
	movq	-64(%rbp), %rdx         ## 8-byte Reload
	callq	_memset
	movq	-40(%rbp), %rdi         ## 8-byte Reload
	movq	-48(%rbp), %rsi         ## 8-byte Reload
	movb	$0, %al
	callq	_scanf
	leaq	_s(%rip), %rdi
	leaq	_s(%rip), %rdx
	movq	%rdi, -88(%rbp)         ## 8-byte Spill
	movq	%rdx, %rdi
	movl	%eax, -92(%rbp)         ## 4-byte Spill
	callq	_strlen
	movl	%eax, %ecx
	movl	%ecx, _n(%rip)
	movq	-88(%rbp), %rdi         ## 8-byte Reload
	callq	__Z7buildSAPc
	callq	__Z6heightv
	movq	$0, -24(%rbp)
	movl	$1, -28(%rbp)
LBB8_3:                                 ##   Parent Loop BB8_1 Depth=1
                                        ## =>  This Inner Loop Header: Depth=2
	movl	-28(%rbp), %eax
	movl	_n(%rip), %ecx
	addl	$1, %ecx
	cmpl	%ecx, %eax
	jge	LBB8_6
## BB#4:                                ##   in Loop: Header=BB8_3 Depth=2
	leaq	_ht(%rip), %rax
	leaq	_sa(%rip), %rcx
	movl	_n(%rip), %edx
	movslq	-28(%rbp), %rsi
	subl	(%rcx,%rsi,4), %edx
	movslq	-28(%rbp), %rcx
	subl	(%rax,%rcx,4), %edx
	movslq	%edx, %rax
	addq	-24(%rbp), %rax
	movq	%rax, -24(%rbp)
## BB#5:                                ##   in Loop: Header=BB8_3 Depth=2
	movl	-28(%rbp), %eax
	addl	$1, %eax
	movl	%eax, -28(%rbp)
	jmp	LBB8_3
LBB8_6:                                 ##   in Loop: Header=BB8_1 Depth=1
	leaq	L_.str.3(%rip), %rdi
	movq	-24(%rbp), %rsi
	movb	$0, %al
	callq	_printf
	movl	%eax, -96(%rbp)         ## 4-byte Spill
## BB#7:                                ##   in Loop: Header=BB8_1 Depth=1
	movl	-12(%rbp), %eax
	addl	$1, %eax
	movl	%eax, -12(%rbp)
	jmp	LBB8_1
LBB8_8:
	xorl	%eax, %eax
	addq	$96, %rsp
	popq	%rbp
	retq
	.cfi_endproc

	.section	__TEXT,__textcoal_nt,coalesced,pure_instructions
	.globl	__ZNSt3__16vectorIiNS_9allocatorIiEEED2Ev
	.weak_def_can_be_hidden	__ZNSt3__16vectorIiNS_9allocatorIiEEED2Ev
	.align	4, 0x90
__ZNSt3__16vectorIiNS_9allocatorIiEEED2Ev: ## @_ZNSt3__16vectorIiNS_9allocatorIiEEED2Ev
	.cfi_startproc
## BB#0:
	pushq	%rbp
Ltmp32:
	.cfi_def_cfa_offset 16
Ltmp33:
	.cfi_offset %rbp, -16
	movq	%rsp, %rbp
Ltmp34:
	.cfi_def_cfa_register %rbp
	subq	$16, %rsp
	movq	%rdi, -8(%rbp)
	movq	-8(%rbp), %rdi
	callq	__ZNSt3__113__vector_baseIiNS_9allocatorIiEEED2Ev
	addq	$16, %rsp
	popq	%rbp
	retq
	.cfi_endproc

	.globl	__ZNSt3__113__vector_baseIiNS_9allocatorIiEEED2Ev
	.weak_def_can_be_hidden	__ZNSt3__113__vector_baseIiNS_9allocatorIiEEED2Ev
	.align	4, 0x90
__ZNSt3__113__vector_baseIiNS_9allocatorIiEEED2Ev: ## @_ZNSt3__113__vector_baseIiNS_9allocatorIiEEED2Ev
	.cfi_startproc
## BB#0:
	pushq	%rbp
Ltmp35:
	.cfi_def_cfa_offset 16
Ltmp36:
	.cfi_offset %rbp, -16
	movq	%rsp, %rbp
Ltmp37:
	.cfi_def_cfa_register %rbp
	subq	$336, %rsp              ## imm = 0x150
	leaq	-312(%rbp), %rax
	leaq	-296(%rbp), %rcx
	movq	%rdi, -304(%rbp)
	movq	-304(%rbp), %rdi
	movq	(%rdi), %rdx
	movq	%rcx, -280(%rbp)
	movq	$-1, -288(%rbp)
	movq	-280(%rbp), %rcx
	movq	-288(%rbp), %rsi
	movq	%rcx, -264(%rbp)
	movq	%rsi, -272(%rbp)
	movq	-264(%rbp), %rcx
	movq	$0, (%rcx)
	movq	-296(%rbp), %rcx
	movq	%rcx, -312(%rbp)
	movq	%rax, -184(%rbp)
	cmpq	$0, %rdx
	movq	%rdi, -320(%rbp)        ## 8-byte Spill
	je	LBB10_5
## BB#1:
	movq	-320(%rbp), %rax        ## 8-byte Reload
	movq	%rax, -120(%rbp)
	movq	-120(%rbp), %rcx
	movq	(%rcx), %rdx
	movq	%rcx, -88(%rbp)
	movq	%rdx, -96(%rbp)
	movq	-88(%rbp), %rcx
	movq	%rcx, -328(%rbp)        ## 8-byte Spill
LBB10_2:                                ## =>This Inner Loop Header: Depth=1
	movq	-96(%rbp), %rax
	movq	-328(%rbp), %rcx        ## 8-byte Reload
	cmpq	8(%rcx), %rax
	je	LBB10_4
## BB#3:                                ##   in Loop: Header=BB10_2 Depth=1
	movq	-328(%rbp), %rax        ## 8-byte Reload
	movq	%rax, -80(%rbp)
	movq	-80(%rbp), %rcx
	addq	$16, %rcx
	movq	%rcx, -72(%rbp)
	movq	-72(%rbp), %rcx
	movq	%rcx, -64(%rbp)
	movq	-64(%rbp), %rcx
	movq	8(%rax), %rdx
	addq	$-4, %rdx
	movq	%rdx, 8(%rax)
	movq	%rdx, -8(%rbp)
	movq	-8(%rbp), %rdx
	movq	%rcx, -32(%rbp)
	movq	%rdx, -40(%rbp)
	movq	-32(%rbp), %rcx
	movq	-40(%rbp), %rdx
	movq	%rcx, -16(%rbp)
	movq	%rdx, -24(%rbp)
	jmp	LBB10_2
LBB10_4:                                ## %_ZNSt3__113__vector_baseIiNS_9allocatorIiEEE5clearEv.exit
	movq	-320(%rbp), %rax        ## 8-byte Reload
	movq	%rax, -144(%rbp)
	movq	-144(%rbp), %rcx
	addq	$16, %rcx
	movq	%rcx, -136(%rbp)
	movq	-136(%rbp), %rcx
	movq	%rcx, -128(%rbp)
	movq	-128(%rbp), %rcx
	movq	(%rax), %rdx
	movq	%rax, -176(%rbp)
	movq	-176(%rbp), %rsi
	movq	%rsi, -168(%rbp)
	movq	-168(%rbp), %rdi
	addq	$16, %rdi
	movq	%rdi, -160(%rbp)
	movq	-160(%rbp), %rdi
	movq	%rdi, -152(%rbp)
	movq	-152(%rbp), %rdi
	movq	(%rdi), %rdi
	movq	(%rsi), %rsi
	subq	%rsi, %rdi
	sarq	$2, %rdi
	movq	%rcx, -240(%rbp)
	movq	%rdx, -248(%rbp)
	movq	%rdi, -256(%rbp)
	movq	-240(%rbp), %rcx
	movq	-248(%rbp), %rdx
	movq	-256(%rbp), %rsi
	movq	%rcx, -200(%rbp)
	movq	%rdx, -208(%rbp)
	movq	%rsi, -216(%rbp)
	movq	-208(%rbp), %rcx
	movq	%rcx, -192(%rbp)
	movq	-192(%rbp), %rdi
	callq	__ZdlPv
LBB10_5:
	addq	$336, %rsp              ## imm = 0x150
	popq	%rbp
	retq
	.cfi_endproc

	.globl	__ZNSt3__16__sortIRNS_6__lessINS_4pairINS2_IiiEEiEES4_EEPS4_EEvT0_S8_T_
	.weak_def_can_be_hidden	__ZNSt3__16__sortIRNS_6__lessINS_4pairINS2_IiiEEiEES4_EEPS4_EEvT0_S8_T_
	.align	4, 0x90
__ZNSt3__16__sortIRNS_6__lessINS_4pairINS2_IiiEEiEES4_EEPS4_EEvT0_S8_T_: ## @_ZNSt3__16__sortIRNS_6__lessINS_4pairINS2_IiiEEiEES4_EEPS4_EEvT0_S8_T_
	.cfi_startproc
## BB#0:
	pushq	%rbp
Ltmp38:
	.cfi_def_cfa_offset 16
Ltmp39:
	.cfi_offset %rbp, -16
	movq	%rsp, %rbp
Ltmp40:
	.cfi_def_cfa_register %rbp
	subq	$2608, %rsp             ## imm = 0xA30
	movq	%rdi, -2360(%rbp)
	movq	%rsi, -2368(%rbp)
	movq	%rdx, -2376(%rbp)
	movq	$6, -2384(%rbp)
LBB11_1:                                ## =>This Loop Header: Depth=1
                                        ##     Child Loop BB11_2 Depth 2
                                        ##       Child Loop BB11_41 Depth 3
                                        ##       Child Loop BB11_56 Depth 3
                                        ##       Child Loop BB11_77 Depth 3
                                        ##         Child Loop BB11_78 Depth 4
                                        ##         Child Loop BB11_93 Depth 4
                                        ##     Child Loop BB11_129 Depth 2
                                        ##       Child Loop BB11_130 Depth 3
                                        ##       Child Loop BB11_145 Depth 3
	jmp	LBB11_2
LBB11_2:                                ##   Parent Loop BB11_1 Depth=1
                                        ## =>  This Loop Header: Depth=2
                                        ##       Child Loop BB11_41 Depth 3
                                        ##       Child Loop BB11_56 Depth 3
                                        ##       Child Loop BB11_77 Depth 3
                                        ##         Child Loop BB11_78 Depth 4
                                        ##         Child Loop BB11_93 Depth 4
	movq	-2368(%rbp), %rax
	movq	-2360(%rbp), %rcx
	subq	%rcx, %rax
	sarq	$2, %rax
	movabsq	$-6148914691236517205, %rcx ## imm = 0xAAAAAAAAAAAAAAAB
	imulq	%rcx, %rax
	movq	%rax, -2392(%rbp)
	movq	%rax, %rcx
	subq	$5, %rcx
	movq	%rax, -2456(%rbp)       ## 8-byte Spill
	movq	%rcx, -2464(%rbp)       ## 8-byte Spill
	ja	LBB11_22
## BB#194:
	leaq	LJTI11_0(%rip), %rax
	movq	-2456(%rbp), %rcx       ## 8-byte Reload
	movslq	(%rax,%rcx,4), %rdx
	addq	%rax, %rdx
	jmpq	*%rdx
LBB11_3:
	jmp	LBB11_193
LBB11_4:
	movb	$1, %al
	movq	-2376(%rbp), %rcx
	movq	-2368(%rbp), %rdx
	addq	$-12, %rdx
	movq	%rdx, -2368(%rbp)
	movq	-2360(%rbp), %rsi
	movq	%rcx, -2336(%rbp)
	movq	%rdx, -2344(%rbp)
	movq	%rsi, -2352(%rbp)
	movq	-2344(%rbp), %rcx
	movq	-2352(%rbp), %rdx
	movq	%rcx, -2320(%rbp)
	movq	%rdx, -2328(%rbp)
	movq	-2320(%rbp), %rcx
	movq	-2328(%rbp), %rdx
	movq	%rcx, -2304(%rbp)
	movq	%rdx, -2312(%rbp)
	movq	-2304(%rbp), %rcx
	movl	(%rcx), %edi
	movq	-2312(%rbp), %rcx
	cmpl	(%rcx), %edi
	movb	%al, -2465(%rbp)        ## 1-byte Spill
	jl	LBB11_8
## BB#5:
	xorl	%eax, %eax
	movb	%al, %cl
	movq	-2312(%rbp), %rdx
	movl	(%rdx), %eax
	movq	-2304(%rbp), %rdx
	cmpl	(%rdx), %eax
	movb	%cl, -2466(%rbp)        ## 1-byte Spill
	jl	LBB11_7
## BB#6:
	movq	-2304(%rbp), %rax
	movl	4(%rax), %ecx
	movq	-2312(%rbp), %rax
	cmpl	4(%rax), %ecx
	setl	%dl
	movb	%dl, -2466(%rbp)        ## 1-byte Spill
LBB11_7:
	movb	-2466(%rbp), %al        ## 1-byte Reload
	movb	%al, -2465(%rbp)        ## 1-byte Spill
LBB11_8:                                ## %_ZNSt3__1ltIiiEEbRKNS_4pairIT_T0_EES6_.exit.i.i
	movb	-2465(%rbp), %al        ## 1-byte Reload
	movb	$1, %cl
	testb	$1, %al
	movb	%cl, -2467(%rbp)        ## 1-byte Spill
	jne	LBB11_16
## BB#9:
	movb	$1, %al
	movq	-2328(%rbp), %rcx
	movq	-2320(%rbp), %rdx
	movq	%rcx, -2288(%rbp)
	movq	%rdx, -2296(%rbp)
	movq	-2288(%rbp), %rcx
	movl	(%rcx), %esi
	movq	-2296(%rbp), %rcx
	cmpl	(%rcx), %esi
	movb	%al, -2468(%rbp)        ## 1-byte Spill
	jl	LBB11_13
## BB#10:
	xorl	%eax, %eax
	movb	%al, %cl
	movq	-2296(%rbp), %rdx
	movl	(%rdx), %eax
	movq	-2288(%rbp), %rdx
	cmpl	(%rdx), %eax
	movb	%cl, -2469(%rbp)        ## 1-byte Spill
	jl	LBB11_12
## BB#11:
	movq	-2288(%rbp), %rax
	movl	4(%rax), %ecx
	movq	-2296(%rbp), %rax
	cmpl	4(%rax), %ecx
	setl	%dl
	movb	%dl, -2469(%rbp)        ## 1-byte Spill
LBB11_12:
	movb	-2469(%rbp), %al        ## 1-byte Reload
	movb	%al, -2468(%rbp)        ## 1-byte Spill
LBB11_13:                               ## %_ZNSt3__1ltIiiEEbRKNS_4pairIT_T0_EES6_.exit1.i.i
	movb	-2468(%rbp), %al        ## 1-byte Reload
	xorl	%ecx, %ecx
	movb	%cl, %dl
	testb	$1, %al
	movb	%dl, -2470(%rbp)        ## 1-byte Spill
	jne	LBB11_15
## BB#14:
	movq	-2320(%rbp), %rax
	movl	8(%rax), %ecx
	movq	-2328(%rbp), %rax
	cmpl	8(%rax), %ecx
	setl	%dl
	movb	%dl, -2470(%rbp)        ## 1-byte Spill
LBB11_15:
	movb	-2470(%rbp), %al        ## 1-byte Reload
	movb	%al, -2467(%rbp)        ## 1-byte Spill
LBB11_16:                               ## %_ZNKSt3__16__lessINS_4pairINS1_IiiEEiEES3_EclERKS3_S6_.exit
	movb	-2467(%rbp), %al        ## 1-byte Reload
	testb	$1, %al
	jne	LBB11_17
	jmp	LBB11_18
LBB11_17:
	leaq	-2052(%rbp), %rax
	leaq	-2116(%rbp), %rcx
	leaq	-2180(%rbp), %rdx
	movq	-2360(%rbp), %rsi
	movq	-2368(%rbp), %rdi
	movq	%rsi, -2272(%rbp)
	movq	%rdi, -2280(%rbp)
	movq	-2272(%rbp), %rsi
	movq	-2280(%rbp), %rdi
	movq	%rsi, -2256(%rbp)
	movq	%rdi, -2264(%rbp)
	movq	-2256(%rbp), %rsi
	movq	-2264(%rbp), %rdi
	movq	%rsi, -2240(%rbp)
	movq	%rdi, -2248(%rbp)
	movq	-2240(%rbp), %rdi
	movq	-2248(%rbp), %r8
	movq	%rdi, -2224(%rbp)
	movq	%r8, -2232(%rbp)
	movq	-2224(%rbp), %rdi
	movq	-2232(%rbp), %r8
	movq	%rdi, -2208(%rbp)
	movq	%r8, -2216(%rbp)
	movq	-2208(%rbp), %rdi
	movq	-2216(%rbp), %r8
	movq	%rdi, -2192(%rbp)
	movq	%r8, -2200(%rbp)
	movq	-2192(%rbp), %r8
	movq	-2200(%rbp), %r9
	movq	%r8, -2168(%rbp)
	movq	%r9, -2176(%rbp)
	movq	-2168(%rbp), %r8
	movq	%r8, -2160(%rbp)
	movq	-2160(%rbp), %r8
	movl	(%r8), %r10d
	movl	%r10d, -2180(%rbp)
	movq	-2176(%rbp), %r8
	movq	%r8, -2144(%rbp)
	movq	-2144(%rbp), %r8
	movl	(%r8), %r10d
	movq	-2168(%rbp), %r8
	movl	%r10d, (%r8)
	movq	%rdx, -2152(%rbp)
	movq	-2152(%rbp), %rdx
	movl	(%rdx), %r10d
	movq	-2176(%rbp), %rdx
	movl	%r10d, (%rdx)
	addq	$4, %rdi
	movq	-2216(%rbp), %rdx
	addq	$4, %rdx
	movq	%rdi, -2128(%rbp)
	movq	%rdx, -2136(%rbp)
	movq	-2128(%rbp), %rdx
	movq	-2136(%rbp), %rdi
	movq	%rdx, -2104(%rbp)
	movq	%rdi, -2112(%rbp)
	movq	-2104(%rbp), %rdx
	movq	%rdx, -2096(%rbp)
	movq	-2096(%rbp), %rdx
	movl	(%rdx), %r10d
	movl	%r10d, -2116(%rbp)
	movq	-2112(%rbp), %rdx
	movq	%rdx, -2080(%rbp)
	movq	-2080(%rbp), %rdx
	movl	(%rdx), %r10d
	movq	-2104(%rbp), %rdx
	movl	%r10d, (%rdx)
	movq	%rcx, -2088(%rbp)
	movq	-2088(%rbp), %rcx
	movl	(%rcx), %r10d
	movq	-2112(%rbp), %rcx
	movl	%r10d, (%rcx)
	addq	$8, %rsi
	movq	-2264(%rbp), %rcx
	addq	$8, %rcx
	movq	%rsi, -2064(%rbp)
	movq	%rcx, -2072(%rbp)
	movq	-2064(%rbp), %rcx
	movq	-2072(%rbp), %rdx
	movq	%rcx, -2040(%rbp)
	movq	%rdx, -2048(%rbp)
	movq	-2040(%rbp), %rcx
	movq	%rcx, -2032(%rbp)
	movq	-2032(%rbp), %rcx
	movl	(%rcx), %r10d
	movl	%r10d, -2052(%rbp)
	movq	-2048(%rbp), %rcx
	movq	%rcx, -2016(%rbp)
	movq	-2016(%rbp), %rcx
	movl	(%rcx), %r10d
	movq	-2040(%rbp), %rcx
	movl	%r10d, (%rcx)
	movq	%rax, -2024(%rbp)
	movq	-2024(%rbp), %rax
	movl	(%rax), %r10d
	movq	-2048(%rbp), %rax
	movl	%r10d, (%rax)
LBB11_18:
	jmp	LBB11_193
LBB11_19:
	movq	-2360(%rbp), %rdi
	movq	-2360(%rbp), %rax
	addq	$12, %rax
	movq	-2368(%rbp), %rcx
	addq	$-12, %rcx
	movq	%rcx, -2368(%rbp)
	movq	-2376(%rbp), %rdx
	movq	%rax, %rsi
	movq	%rdx, -2480(%rbp)       ## 8-byte Spill
	movq	%rcx, %rdx
	movq	-2480(%rbp), %rcx       ## 8-byte Reload
	callq	__ZNSt3__17__sort3IRNS_6__lessINS_4pairINS2_IiiEEiEES4_EEPS4_EEjT0_S8_S8_T_
	movl	%eax, -2484(%rbp)       ## 4-byte Spill
	jmp	LBB11_193
LBB11_20:
	movq	-2360(%rbp), %rdi
	movq	-2360(%rbp), %rax
	addq	$12, %rax
	movq	-2360(%rbp), %rcx
	addq	$24, %rcx
	movq	-2368(%rbp), %rdx
	addq	$-12, %rdx
	movq	%rdx, -2368(%rbp)
	movq	-2376(%rbp), %r8
	movq	%rax, %rsi
	movq	%rdx, -2496(%rbp)       ## 8-byte Spill
	movq	%rcx, %rdx
	movq	-2496(%rbp), %rcx       ## 8-byte Reload
	callq	__ZNSt3__17__sort4IRNS_6__lessINS_4pairINS2_IiiEEiEES4_EEPS4_EEjT0_S8_S8_S8_T_
	movl	%eax, -2500(%rbp)       ## 4-byte Spill
	jmp	LBB11_193
LBB11_21:
	movq	-2360(%rbp), %rdi
	movq	-2360(%rbp), %rax
	addq	$12, %rax
	movq	-2360(%rbp), %rcx
	addq	$24, %rcx
	movq	-2360(%rbp), %rdx
	addq	$36, %rdx
	movq	-2368(%rbp), %rsi
	addq	$-12, %rsi
	movq	%rsi, -2368(%rbp)
	movq	-2376(%rbp), %r9
	movq	%rsi, -2512(%rbp)       ## 8-byte Spill
	movq	%rax, %rsi
	movq	%rdx, -2520(%rbp)       ## 8-byte Spill
	movq	%rcx, %rdx
	movq	-2520(%rbp), %rcx       ## 8-byte Reload
	movq	-2512(%rbp), %r8        ## 8-byte Reload
	callq	__ZNSt3__17__sort5IRNS_6__lessINS_4pairINS2_IiiEEiEES4_EEPS4_EEjT0_S8_S8_S8_S8_T_
	movl	%eax, -2524(%rbp)       ## 4-byte Spill
	jmp	LBB11_193
LBB11_22:                               ##   in Loop: Header=BB11_2 Depth=2
	cmpq	$6, -2392(%rbp)
	jg	LBB11_24
## BB#23:
	movq	-2360(%rbp), %rdi
	movq	-2368(%rbp), %rsi
	movq	-2376(%rbp), %rdx
	callq	__ZNSt3__118__insertion_sort_3IRNS_6__lessINS_4pairINS2_IiiEEiEES4_EEPS4_EEvT0_S8_T_
	jmp	LBB11_193
LBB11_24:                               ##   in Loop: Header=BB11_2 Depth=2
	movq	-2360(%rbp), %rax
	movq	%rax, -2400(%rbp)
	movq	-2368(%rbp), %rax
	movq	%rax, -2408(%rbp)
	movq	-2408(%rbp), %rax
	addq	$-12, %rax
	movq	%rax, -2408(%rbp)
	cmpq	$1000, -2392(%rbp)      ## imm = 0x3E8
	jl	LBB11_26
## BB#25:                               ##   in Loop: Header=BB11_2 Depth=2
	movl	$2, %eax
	movl	%eax, %ecx
	movq	-2392(%rbp), %rax
	cqto
	idivq	%rcx
	movq	%rax, -2424(%rbp)
	movq	-2424(%rbp), %rax
	imulq	$12, %rax, %rax
	addq	-2400(%rbp), %rax
	movq	%rax, -2400(%rbp)
	movq	-2424(%rbp), %rax
	cqto
	idivq	%rcx
	movq	%rax, -2424(%rbp)
	movq	-2360(%rbp), %rdi
	movq	-2360(%rbp), %rax
	imulq	$12, -2424(%rbp), %rcx
	addq	%rcx, %rax
	movq	-2400(%rbp), %rcx
	movq	-2400(%rbp), %rsi
	imulq	$12, -2424(%rbp), %r8
	addq	%r8, %rsi
	movq	-2408(%rbp), %r8
	movq	-2376(%rbp), %r9
	movq	%rsi, -2536(%rbp)       ## 8-byte Spill
	movq	%rax, %rsi
	movq	%rcx, %rdx
	movq	-2536(%rbp), %rcx       ## 8-byte Reload
	callq	__ZNSt3__17__sort5IRNS_6__lessINS_4pairINS2_IiiEEiEES4_EEPS4_EEjT0_S8_S8_S8_S8_T_
	movl	%eax, -2412(%rbp)
	jmp	LBB11_27
LBB11_26:                               ##   in Loop: Header=BB11_2 Depth=2
	movl	$2, %eax
	movl	%eax, %ecx
	movq	-2392(%rbp), %rax
	cqto
	idivq	%rcx
	movq	%rax, -2424(%rbp)
	movq	-2424(%rbp), %rax
	imulq	$12, %rax, %rax
	addq	-2400(%rbp), %rax
	movq	%rax, -2400(%rbp)
	movq	-2360(%rbp), %rdi
	movq	-2400(%rbp), %rsi
	movq	-2408(%rbp), %rax
	movq	-2376(%rbp), %rcx
	movq	%rax, %rdx
	callq	__ZNSt3__17__sort3IRNS_6__lessINS_4pairINS2_IiiEEiEES4_EEPS4_EEjT0_S8_S8_T_
	movl	%eax, -2412(%rbp)
LBB11_27:                               ##   in Loop: Header=BB11_2 Depth=2
	movb	$1, %al
	movq	-2360(%rbp), %rcx
	movq	%rcx, -2432(%rbp)
	movq	-2408(%rbp), %rcx
	movq	%rcx, -2440(%rbp)
	movq	-2376(%rbp), %rcx
	movq	-2432(%rbp), %rdx
	movq	-2400(%rbp), %rsi
	movq	%rcx, -1992(%rbp)
	movq	%rdx, -2000(%rbp)
	movq	%rsi, -2008(%rbp)
	movq	-2000(%rbp), %rcx
	movq	-2008(%rbp), %rdx
	movq	%rcx, -1976(%rbp)
	movq	%rdx, -1984(%rbp)
	movq	-1976(%rbp), %rcx
	movq	-1984(%rbp), %rdx
	movq	%rcx, -1960(%rbp)
	movq	%rdx, -1968(%rbp)
	movq	-1960(%rbp), %rcx
	movl	(%rcx), %edi
	movq	-1968(%rbp), %rcx
	cmpl	(%rcx), %edi
	movb	%al, -2537(%rbp)        ## 1-byte Spill
	jl	LBB11_31
## BB#28:                               ##   in Loop: Header=BB11_2 Depth=2
	xorl	%eax, %eax
	movb	%al, %cl
	movq	-1968(%rbp), %rdx
	movl	(%rdx), %eax
	movq	-1960(%rbp), %rdx
	cmpl	(%rdx), %eax
	movb	%cl, -2538(%rbp)        ## 1-byte Spill
	jl	LBB11_30
## BB#29:                               ##   in Loop: Header=BB11_2 Depth=2
	movq	-1960(%rbp), %rax
	movl	4(%rax), %ecx
	movq	-1968(%rbp), %rax
	cmpl	4(%rax), %ecx
	setl	%dl
	movb	%dl, -2538(%rbp)        ## 1-byte Spill
LBB11_30:                               ##   in Loop: Header=BB11_2 Depth=2
	movb	-2538(%rbp), %al        ## 1-byte Reload
	movb	%al, -2537(%rbp)        ## 1-byte Spill
LBB11_31:                               ## %_ZNSt3__1ltIiiEEbRKNS_4pairIT_T0_EES6_.exit.i.i.1
                                        ##   in Loop: Header=BB11_2 Depth=2
	movb	-2537(%rbp), %al        ## 1-byte Reload
	movb	$1, %cl
	testb	$1, %al
	movb	%cl, -2539(%rbp)        ## 1-byte Spill
	jne	LBB11_39
## BB#32:                               ##   in Loop: Header=BB11_2 Depth=2
	movb	$1, %al
	movq	-1984(%rbp), %rcx
	movq	-1976(%rbp), %rdx
	movq	%rcx, -1944(%rbp)
	movq	%rdx, -1952(%rbp)
	movq	-1944(%rbp), %rcx
	movl	(%rcx), %esi
	movq	-1952(%rbp), %rcx
	cmpl	(%rcx), %esi
	movb	%al, -2540(%rbp)        ## 1-byte Spill
	jl	LBB11_36
## BB#33:                               ##   in Loop: Header=BB11_2 Depth=2
	xorl	%eax, %eax
	movb	%al, %cl
	movq	-1952(%rbp), %rdx
	movl	(%rdx), %eax
	movq	-1944(%rbp), %rdx
	cmpl	(%rdx), %eax
	movb	%cl, -2541(%rbp)        ## 1-byte Spill
	jl	LBB11_35
## BB#34:                               ##   in Loop: Header=BB11_2 Depth=2
	movq	-1944(%rbp), %rax
	movl	4(%rax), %ecx
	movq	-1952(%rbp), %rax
	cmpl	4(%rax), %ecx
	setl	%dl
	movb	%dl, -2541(%rbp)        ## 1-byte Spill
LBB11_35:                               ##   in Loop: Header=BB11_2 Depth=2
	movb	-2541(%rbp), %al        ## 1-byte Reload
	movb	%al, -2540(%rbp)        ## 1-byte Spill
LBB11_36:                               ## %_ZNSt3__1ltIiiEEbRKNS_4pairIT_T0_EES6_.exit1.i.i.2
                                        ##   in Loop: Header=BB11_2 Depth=2
	movb	-2540(%rbp), %al        ## 1-byte Reload
	xorl	%ecx, %ecx
	movb	%cl, %dl
	testb	$1, %al
	movb	%dl, -2542(%rbp)        ## 1-byte Spill
	jne	LBB11_38
## BB#37:                               ##   in Loop: Header=BB11_2 Depth=2
	movq	-1976(%rbp), %rax
	movl	8(%rax), %ecx
	movq	-1984(%rbp), %rax
	cmpl	8(%rax), %ecx
	setl	%dl
	movb	%dl, -2542(%rbp)        ## 1-byte Spill
LBB11_38:                               ##   in Loop: Header=BB11_2 Depth=2
	movb	-2542(%rbp), %al        ## 1-byte Reload
	movb	%al, -2539(%rbp)        ## 1-byte Spill
LBB11_39:                               ## %_ZNKSt3__16__lessINS_4pairINS1_IiiEEiEES3_EclERKS3_S6_.exit3
                                        ##   in Loop: Header=BB11_2 Depth=2
	movb	-2539(%rbp), %al        ## 1-byte Reload
	testb	$1, %al
	jne	LBB11_127
## BB#40:                               ##   in Loop: Header=BB11_2 Depth=2
	jmp	LBB11_41
LBB11_41:                               ##   Parent Loop BB11_1 Depth=1
                                        ##     Parent Loop BB11_2 Depth=2
                                        ## =>    This Inner Loop Header: Depth=3
	movq	-2432(%rbp), %rax
	movq	-2440(%rbp), %rcx
	addq	$-12, %rcx
	movq	%rcx, -2440(%rbp)
	cmpq	%rcx, %rax
	jne	LBB11_111
## BB#42:                               ##   in Loop: Header=BB11_2 Depth=2
	movb	$1, %al
	movq	-2432(%rbp), %rcx
	addq	$12, %rcx
	movq	%rcx, -2432(%rbp)
	movq	-2368(%rbp), %rcx
	movq	%rcx, -2440(%rbp)
	movq	-2376(%rbp), %rcx
	movq	-2360(%rbp), %rdx
	movq	-2440(%rbp), %rsi
	addq	$-12, %rsi
	movq	%rsi, -2440(%rbp)
	movq	%rcx, -1920(%rbp)
	movq	%rdx, -1928(%rbp)
	movq	%rsi, -1936(%rbp)
	movq	-1928(%rbp), %rcx
	movq	-1936(%rbp), %rdx
	movq	%rcx, -1904(%rbp)
	movq	%rdx, -1912(%rbp)
	movq	-1904(%rbp), %rcx
	movq	-1912(%rbp), %rdx
	movq	%rcx, -1888(%rbp)
	movq	%rdx, -1896(%rbp)
	movq	-1888(%rbp), %rcx
	movl	(%rcx), %edi
	movq	-1896(%rbp), %rcx
	cmpl	(%rcx), %edi
	movb	%al, -2543(%rbp)        ## 1-byte Spill
	jl	LBB11_46
## BB#43:                               ##   in Loop: Header=BB11_2 Depth=2
	xorl	%eax, %eax
	movb	%al, %cl
	movq	-1896(%rbp), %rdx
	movl	(%rdx), %eax
	movq	-1888(%rbp), %rdx
	cmpl	(%rdx), %eax
	movb	%cl, -2544(%rbp)        ## 1-byte Spill
	jl	LBB11_45
## BB#44:                               ##   in Loop: Header=BB11_2 Depth=2
	movq	-1888(%rbp), %rax
	movl	4(%rax), %ecx
	movq	-1896(%rbp), %rax
	cmpl	4(%rax), %ecx
	setl	%dl
	movb	%dl, -2544(%rbp)        ## 1-byte Spill
LBB11_45:                               ##   in Loop: Header=BB11_2 Depth=2
	movb	-2544(%rbp), %al        ## 1-byte Reload
	movb	%al, -2543(%rbp)        ## 1-byte Spill
LBB11_46:                               ## %_ZNSt3__1ltIiiEEbRKNS_4pairIT_T0_EES6_.exit.i.i.4
                                        ##   in Loop: Header=BB11_2 Depth=2
	movb	-2543(%rbp), %al        ## 1-byte Reload
	movb	$1, %cl
	testb	$1, %al
	movb	%cl, -2545(%rbp)        ## 1-byte Spill
	jne	LBB11_54
## BB#47:                               ##   in Loop: Header=BB11_2 Depth=2
	movb	$1, %al
	movq	-1912(%rbp), %rcx
	movq	-1904(%rbp), %rdx
	movq	%rcx, -1872(%rbp)
	movq	%rdx, -1880(%rbp)
	movq	-1872(%rbp), %rcx
	movl	(%rcx), %esi
	movq	-1880(%rbp), %rcx
	cmpl	(%rcx), %esi
	movb	%al, -2546(%rbp)        ## 1-byte Spill
	jl	LBB11_51
## BB#48:                               ##   in Loop: Header=BB11_2 Depth=2
	xorl	%eax, %eax
	movb	%al, %cl
	movq	-1880(%rbp), %rdx
	movl	(%rdx), %eax
	movq	-1872(%rbp), %rdx
	cmpl	(%rdx), %eax
	movb	%cl, -2547(%rbp)        ## 1-byte Spill
	jl	LBB11_50
## BB#49:                               ##   in Loop: Header=BB11_2 Depth=2
	movq	-1872(%rbp), %rax
	movl	4(%rax), %ecx
	movq	-1880(%rbp), %rax
	cmpl	4(%rax), %ecx
	setl	%dl
	movb	%dl, -2547(%rbp)        ## 1-byte Spill
LBB11_50:                               ##   in Loop: Header=BB11_2 Depth=2
	movb	-2547(%rbp), %al        ## 1-byte Reload
	movb	%al, -2546(%rbp)        ## 1-byte Spill
LBB11_51:                               ## %_ZNSt3__1ltIiiEEbRKNS_4pairIT_T0_EES6_.exit1.i.i.5
                                        ##   in Loop: Header=BB11_2 Depth=2
	movb	-2546(%rbp), %al        ## 1-byte Reload
	xorl	%ecx, %ecx
	movb	%cl, %dl
	testb	$1, %al
	movb	%dl, -2548(%rbp)        ## 1-byte Spill
	jne	LBB11_53
## BB#52:                               ##   in Loop: Header=BB11_2 Depth=2
	movq	-1904(%rbp), %rax
	movl	8(%rax), %ecx
	movq	-1912(%rbp), %rax
	cmpl	8(%rax), %ecx
	setl	%dl
	movb	%dl, -2548(%rbp)        ## 1-byte Spill
LBB11_53:                               ##   in Loop: Header=BB11_2 Depth=2
	movb	-2548(%rbp), %al        ## 1-byte Reload
	movb	%al, -2545(%rbp)        ## 1-byte Spill
LBB11_54:                               ## %_ZNKSt3__16__lessINS_4pairINS1_IiiEEiEES3_EclERKS3_S6_.exit6
                                        ##   in Loop: Header=BB11_2 Depth=2
	movb	-2545(%rbp), %al        ## 1-byte Reload
	testb	$1, %al
	jne	LBB11_74
## BB#55:                               ##   in Loop: Header=BB11_2 Depth=2
	jmp	LBB11_56
LBB11_56:                               ##   Parent Loop BB11_1 Depth=1
                                        ##     Parent Loop BB11_2 Depth=2
                                        ## =>    This Inner Loop Header: Depth=3
	movq	-2432(%rbp), %rax
	cmpq	-2440(%rbp), %rax
	jne	LBB11_58
## BB#57:
	jmp	LBB11_193
LBB11_58:                               ##   in Loop: Header=BB11_56 Depth=3
	movb	$1, %al
	movq	-2376(%rbp), %rcx
	movq	-2360(%rbp), %rdx
	movq	-2432(%rbp), %rsi
	movq	%rcx, -1848(%rbp)
	movq	%rdx, -1856(%rbp)
	movq	%rsi, -1864(%rbp)
	movq	-1856(%rbp), %rcx
	movq	-1864(%rbp), %rdx
	movq	%rcx, -1832(%rbp)
	movq	%rdx, -1840(%rbp)
	movq	-1832(%rbp), %rcx
	movq	-1840(%rbp), %rdx
	movq	%rcx, -1816(%rbp)
	movq	%rdx, -1824(%rbp)
	movq	-1816(%rbp), %rcx
	movl	(%rcx), %edi
	movq	-1824(%rbp), %rcx
	cmpl	(%rcx), %edi
	movb	%al, -2549(%rbp)        ## 1-byte Spill
	jl	LBB11_62
## BB#59:                               ##   in Loop: Header=BB11_56 Depth=3
	xorl	%eax, %eax
	movb	%al, %cl
	movq	-1824(%rbp), %rdx
	movl	(%rdx), %eax
	movq	-1816(%rbp), %rdx
	cmpl	(%rdx), %eax
	movb	%cl, -2550(%rbp)        ## 1-byte Spill
	jl	LBB11_61
## BB#60:                               ##   in Loop: Header=BB11_56 Depth=3
	movq	-1816(%rbp), %rax
	movl	4(%rax), %ecx
	movq	-1824(%rbp), %rax
	cmpl	4(%rax), %ecx
	setl	%dl
	movb	%dl, -2550(%rbp)        ## 1-byte Spill
LBB11_61:                               ##   in Loop: Header=BB11_56 Depth=3
	movb	-2550(%rbp), %al        ## 1-byte Reload
	movb	%al, -2549(%rbp)        ## 1-byte Spill
LBB11_62:                               ## %_ZNSt3__1ltIiiEEbRKNS_4pairIT_T0_EES6_.exit.i.i.7
                                        ##   in Loop: Header=BB11_56 Depth=3
	movb	-2549(%rbp), %al        ## 1-byte Reload
	movb	$1, %cl
	testb	$1, %al
	movb	%cl, -2551(%rbp)        ## 1-byte Spill
	jne	LBB11_70
## BB#63:                               ##   in Loop: Header=BB11_56 Depth=3
	movb	$1, %al
	movq	-1840(%rbp), %rcx
	movq	-1832(%rbp), %rdx
	movq	%rcx, -1800(%rbp)
	movq	%rdx, -1808(%rbp)
	movq	-1800(%rbp), %rcx
	movl	(%rcx), %esi
	movq	-1808(%rbp), %rcx
	cmpl	(%rcx), %esi
	movb	%al, -2552(%rbp)        ## 1-byte Spill
	jl	LBB11_67
## BB#64:                               ##   in Loop: Header=BB11_56 Depth=3
	xorl	%eax, %eax
	movb	%al, %cl
	movq	-1808(%rbp), %rdx
	movl	(%rdx), %eax
	movq	-1800(%rbp), %rdx
	cmpl	(%rdx), %eax
	movb	%cl, -2553(%rbp)        ## 1-byte Spill
	jl	LBB11_66
## BB#65:                               ##   in Loop: Header=BB11_56 Depth=3
	movq	-1800(%rbp), %rax
	movl	4(%rax), %ecx
	movq	-1808(%rbp), %rax
	cmpl	4(%rax), %ecx
	setl	%dl
	movb	%dl, -2553(%rbp)        ## 1-byte Spill
LBB11_66:                               ##   in Loop: Header=BB11_56 Depth=3
	movb	-2553(%rbp), %al        ## 1-byte Reload
	movb	%al, -2552(%rbp)        ## 1-byte Spill
LBB11_67:                               ## %_ZNSt3__1ltIiiEEbRKNS_4pairIT_T0_EES6_.exit1.i.i.8
                                        ##   in Loop: Header=BB11_56 Depth=3
	movb	-2552(%rbp), %al        ## 1-byte Reload
	xorl	%ecx, %ecx
	movb	%cl, %dl
	testb	$1, %al
	movb	%dl, -2554(%rbp)        ## 1-byte Spill
	jne	LBB11_69
## BB#68:                               ##   in Loop: Header=BB11_56 Depth=3
	movq	-1832(%rbp), %rax
	movl	8(%rax), %ecx
	movq	-1840(%rbp), %rax
	cmpl	8(%rax), %ecx
	setl	%dl
	movb	%dl, -2554(%rbp)        ## 1-byte Spill
LBB11_69:                               ##   in Loop: Header=BB11_56 Depth=3
	movb	-2554(%rbp), %al        ## 1-byte Reload
	movb	%al, -2551(%rbp)        ## 1-byte Spill
LBB11_70:                               ## %_ZNKSt3__16__lessINS_4pairINS1_IiiEEiEES3_EclERKS3_S6_.exit9
                                        ##   in Loop: Header=BB11_56 Depth=3
	movb	-2551(%rbp), %al        ## 1-byte Reload
	testb	$1, %al
	jne	LBB11_71
	jmp	LBB11_72
LBB11_71:                               ##   in Loop: Header=BB11_2 Depth=2
	leaq	-44(%rbp), %rax
	leaq	-108(%rbp), %rcx
	leaq	-172(%rbp), %rdx
	movq	-2432(%rbp), %rsi
	movq	-2440(%rbp), %rdi
	movq	%rsi, -264(%rbp)
	movq	%rdi, -272(%rbp)
	movq	-264(%rbp), %rsi
	movq	-272(%rbp), %rdi
	movq	%rsi, -248(%rbp)
	movq	%rdi, -256(%rbp)
	movq	-248(%rbp), %rsi
	movq	-256(%rbp), %rdi
	movq	%rsi, -232(%rbp)
	movq	%rdi, -240(%rbp)
	movq	-232(%rbp), %rdi
	movq	-240(%rbp), %r8
	movq	%rdi, -216(%rbp)
	movq	%r8, -224(%rbp)
	movq	-216(%rbp), %rdi
	movq	-224(%rbp), %r8
	movq	%rdi, -200(%rbp)
	movq	%r8, -208(%rbp)
	movq	-200(%rbp), %rdi
	movq	-208(%rbp), %r8
	movq	%rdi, -184(%rbp)
	movq	%r8, -192(%rbp)
	movq	-184(%rbp), %r8
	movq	-192(%rbp), %r9
	movq	%r8, -160(%rbp)
	movq	%r9, -168(%rbp)
	movq	-160(%rbp), %r8
	movq	%r8, -152(%rbp)
	movq	-152(%rbp), %r8
	movl	(%r8), %r10d
	movl	%r10d, -172(%rbp)
	movq	-168(%rbp), %r8
	movq	%r8, -136(%rbp)
	movq	-136(%rbp), %r8
	movl	(%r8), %r10d
	movq	-160(%rbp), %r8
	movl	%r10d, (%r8)
	movq	%rdx, -144(%rbp)
	movq	-144(%rbp), %rdx
	movl	(%rdx), %r10d
	movq	-168(%rbp), %rdx
	movl	%r10d, (%rdx)
	addq	$4, %rdi
	movq	-208(%rbp), %rdx
	addq	$4, %rdx
	movq	%rdi, -120(%rbp)
	movq	%rdx, -128(%rbp)
	movq	-120(%rbp), %rdx
	movq	-128(%rbp), %rdi
	movq	%rdx, -96(%rbp)
	movq	%rdi, -104(%rbp)
	movq	-96(%rbp), %rdx
	movq	%rdx, -88(%rbp)
	movq	-88(%rbp), %rdx
	movl	(%rdx), %r10d
	movl	%r10d, -108(%rbp)
	movq	-104(%rbp), %rdx
	movq	%rdx, -72(%rbp)
	movq	-72(%rbp), %rdx
	movl	(%rdx), %r10d
	movq	-96(%rbp), %rdx
	movl	%r10d, (%rdx)
	movq	%rcx, -80(%rbp)
	movq	-80(%rbp), %rcx
	movl	(%rcx), %r10d
	movq	-104(%rbp), %rcx
	movl	%r10d, (%rcx)
	addq	$8, %rsi
	movq	-256(%rbp), %rcx
	addq	$8, %rcx
	movq	%rsi, -56(%rbp)
	movq	%rcx, -64(%rbp)
	movq	-56(%rbp), %rcx
	movq	-64(%rbp), %rdx
	movq	%rcx, -32(%rbp)
	movq	%rdx, -40(%rbp)
	movq	-32(%rbp), %rcx
	movq	%rcx, -24(%rbp)
	movq	-24(%rbp), %rcx
	movl	(%rcx), %r10d
	movl	%r10d, -44(%rbp)
	movq	-40(%rbp), %rcx
	movq	%rcx, -8(%rbp)
	movq	-8(%rbp), %rcx
	movl	(%rcx), %r10d
	movq	-32(%rbp), %rcx
	movl	%r10d, (%rcx)
	movq	%rax, -16(%rbp)
	movq	-16(%rbp), %rax
	movl	(%rax), %r10d
	movq	-40(%rbp), %rax
	movl	%r10d, (%rax)
	movl	-2412(%rbp), %r10d
	addl	$1, %r10d
	movl	%r10d, -2412(%rbp)
	movq	-2432(%rbp), %rax
	addq	$12, %rax
	movq	%rax, -2432(%rbp)
	jmp	LBB11_73
LBB11_72:                               ##   in Loop: Header=BB11_56 Depth=3
	movq	-2432(%rbp), %rax
	addq	$12, %rax
	movq	%rax, -2432(%rbp)
	jmp	LBB11_56
LBB11_73:                               ##   in Loop: Header=BB11_2 Depth=2
	jmp	LBB11_74
LBB11_74:                               ##   in Loop: Header=BB11_2 Depth=2
	movq	-2432(%rbp), %rax
	cmpq	-2440(%rbp), %rax
	jne	LBB11_76
## BB#75:
	jmp	LBB11_193
LBB11_76:                               ##   in Loop: Header=BB11_2 Depth=2
	jmp	LBB11_77
LBB11_77:                               ##   Parent Loop BB11_1 Depth=1
                                        ##     Parent Loop BB11_2 Depth=2
                                        ## =>    This Loop Header: Depth=3
                                        ##         Child Loop BB11_78 Depth 4
                                        ##         Child Loop BB11_93 Depth 4
	jmp	LBB11_78
LBB11_78:                               ##   Parent Loop BB11_1 Depth=1
                                        ##     Parent Loop BB11_2 Depth=2
                                        ##       Parent Loop BB11_77 Depth=3
                                        ## =>      This Inner Loop Header: Depth=4
	movb	$1, %al
	movq	-2376(%rbp), %rcx
	movq	-2360(%rbp), %rdx
	movq	-2432(%rbp), %rsi
	movq	%rcx, -328(%rbp)
	movq	%rdx, -336(%rbp)
	movq	%rsi, -344(%rbp)
	movq	-336(%rbp), %rcx
	movq	-344(%rbp), %rdx
	movq	%rcx, -312(%rbp)
	movq	%rdx, -320(%rbp)
	movq	-312(%rbp), %rcx
	movq	-320(%rbp), %rdx
	movq	%rcx, -296(%rbp)
	movq	%rdx, -304(%rbp)
	movq	-296(%rbp), %rcx
	movl	(%rcx), %edi
	movq	-304(%rbp), %rcx
	cmpl	(%rcx), %edi
	movb	%al, -2555(%rbp)        ## 1-byte Spill
	jl	LBB11_82
## BB#79:                               ##   in Loop: Header=BB11_78 Depth=4
	xorl	%eax, %eax
	movb	%al, %cl
	movq	-304(%rbp), %rdx
	movl	(%rdx), %eax
	movq	-296(%rbp), %rdx
	cmpl	(%rdx), %eax
	movb	%cl, -2556(%rbp)        ## 1-byte Spill
	jl	LBB11_81
## BB#80:                               ##   in Loop: Header=BB11_78 Depth=4
	movq	-296(%rbp), %rax
	movl	4(%rax), %ecx
	movq	-304(%rbp), %rax
	cmpl	4(%rax), %ecx
	setl	%dl
	movb	%dl, -2556(%rbp)        ## 1-byte Spill
LBB11_81:                               ##   in Loop: Header=BB11_78 Depth=4
	movb	-2556(%rbp), %al        ## 1-byte Reload
	movb	%al, -2555(%rbp)        ## 1-byte Spill
LBB11_82:                               ## %_ZNSt3__1ltIiiEEbRKNS_4pairIT_T0_EES6_.exit.i.i.37
                                        ##   in Loop: Header=BB11_78 Depth=4
	movb	-2555(%rbp), %al        ## 1-byte Reload
	movb	$1, %cl
	testb	$1, %al
	movb	%cl, -2557(%rbp)        ## 1-byte Spill
	jne	LBB11_90
## BB#83:                               ##   in Loop: Header=BB11_78 Depth=4
	movb	$1, %al
	movq	-320(%rbp), %rcx
	movq	-312(%rbp), %rdx
	movq	%rcx, -280(%rbp)
	movq	%rdx, -288(%rbp)
	movq	-280(%rbp), %rcx
	movl	(%rcx), %esi
	movq	-288(%rbp), %rcx
	cmpl	(%rcx), %esi
	movb	%al, -2558(%rbp)        ## 1-byte Spill
	jl	LBB11_87
## BB#84:                               ##   in Loop: Header=BB11_78 Depth=4
	xorl	%eax, %eax
	movb	%al, %cl
	movq	-288(%rbp), %rdx
	movl	(%rdx), %eax
	movq	-280(%rbp), %rdx
	cmpl	(%rdx), %eax
	movb	%cl, -2559(%rbp)        ## 1-byte Spill
	jl	LBB11_86
## BB#85:                               ##   in Loop: Header=BB11_78 Depth=4
	movq	-280(%rbp), %rax
	movl	4(%rax), %ecx
	movq	-288(%rbp), %rax
	cmpl	4(%rax), %ecx
	setl	%dl
	movb	%dl, -2559(%rbp)        ## 1-byte Spill
LBB11_86:                               ##   in Loop: Header=BB11_78 Depth=4
	movb	-2559(%rbp), %al        ## 1-byte Reload
	movb	%al, -2558(%rbp)        ## 1-byte Spill
LBB11_87:                               ## %_ZNSt3__1ltIiiEEbRKNS_4pairIT_T0_EES6_.exit1.i.i.38
                                        ##   in Loop: Header=BB11_78 Depth=4
	movb	-2558(%rbp), %al        ## 1-byte Reload
	xorl	%ecx, %ecx
	movb	%cl, %dl
	testb	$1, %al
	movb	%dl, -2560(%rbp)        ## 1-byte Spill
	jne	LBB11_89
## BB#88:                               ##   in Loop: Header=BB11_78 Depth=4
	movq	-312(%rbp), %rax
	movl	8(%rax), %ecx
	movq	-320(%rbp), %rax
	cmpl	8(%rax), %ecx
	setl	%dl
	movb	%dl, -2560(%rbp)        ## 1-byte Spill
LBB11_89:                               ##   in Loop: Header=BB11_78 Depth=4
	movb	-2560(%rbp), %al        ## 1-byte Reload
	movb	%al, -2557(%rbp)        ## 1-byte Spill
LBB11_90:                               ## %_ZNKSt3__16__lessINS_4pairINS1_IiiEEiEES3_EclERKS3_S6_.exit39
                                        ##   in Loop: Header=BB11_78 Depth=4
	movb	-2557(%rbp), %al        ## 1-byte Reload
	xorb	$-1, %al
	testb	$1, %al
	jne	LBB11_91
	jmp	LBB11_92
LBB11_91:                               ##   in Loop: Header=BB11_78 Depth=4
	movq	-2432(%rbp), %rax
	addq	$12, %rax
	movq	%rax, -2432(%rbp)
	jmp	LBB11_78
LBB11_92:                               ##   in Loop: Header=BB11_77 Depth=3
	jmp	LBB11_93
LBB11_93:                               ##   Parent Loop BB11_1 Depth=1
                                        ##     Parent Loop BB11_2 Depth=2
                                        ##       Parent Loop BB11_77 Depth=3
                                        ## =>      This Inner Loop Header: Depth=4
	movb	$1, %al
	movq	-2376(%rbp), %rcx
	movq	-2360(%rbp), %rdx
	movq	-2440(%rbp), %rsi
	addq	$-12, %rsi
	movq	%rsi, -2440(%rbp)
	movq	%rcx, -400(%rbp)
	movq	%rdx, -408(%rbp)
	movq	%rsi, -416(%rbp)
	movq	-408(%rbp), %rcx
	movq	-416(%rbp), %rdx
	movq	%rcx, -384(%rbp)
	movq	%rdx, -392(%rbp)
	movq	-384(%rbp), %rcx
	movq	-392(%rbp), %rdx
	movq	%rcx, -368(%rbp)
	movq	%rdx, -376(%rbp)
	movq	-368(%rbp), %rcx
	movl	(%rcx), %edi
	movq	-376(%rbp), %rcx
	cmpl	(%rcx), %edi
	movb	%al, -2561(%rbp)        ## 1-byte Spill
	jl	LBB11_97
## BB#94:                               ##   in Loop: Header=BB11_93 Depth=4
	xorl	%eax, %eax
	movb	%al, %cl
	movq	-376(%rbp), %rdx
	movl	(%rdx), %eax
	movq	-368(%rbp), %rdx
	cmpl	(%rdx), %eax
	movb	%cl, -2562(%rbp)        ## 1-byte Spill
	jl	LBB11_96
## BB#95:                               ##   in Loop: Header=BB11_93 Depth=4
	movq	-368(%rbp), %rax
	movl	4(%rax), %ecx
	movq	-376(%rbp), %rax
	cmpl	4(%rax), %ecx
	setl	%dl
	movb	%dl, -2562(%rbp)        ## 1-byte Spill
LBB11_96:                               ##   in Loop: Header=BB11_93 Depth=4
	movb	-2562(%rbp), %al        ## 1-byte Reload
	movb	%al, -2561(%rbp)        ## 1-byte Spill
LBB11_97:                               ## %_ZNSt3__1ltIiiEEbRKNS_4pairIT_T0_EES6_.exit.i.i.34
                                        ##   in Loop: Header=BB11_93 Depth=4
	movb	-2561(%rbp), %al        ## 1-byte Reload
	movb	$1, %cl
	testb	$1, %al
	movb	%cl, -2563(%rbp)        ## 1-byte Spill
	jne	LBB11_105
## BB#98:                               ##   in Loop: Header=BB11_93 Depth=4
	movb	$1, %al
	movq	-392(%rbp), %rcx
	movq	-384(%rbp), %rdx
	movq	%rcx, -352(%rbp)
	movq	%rdx, -360(%rbp)
	movq	-352(%rbp), %rcx
	movl	(%rcx), %esi
	movq	-360(%rbp), %rcx
	cmpl	(%rcx), %esi
	movb	%al, -2564(%rbp)        ## 1-byte Spill
	jl	LBB11_102
## BB#99:                               ##   in Loop: Header=BB11_93 Depth=4
	xorl	%eax, %eax
	movb	%al, %cl
	movq	-360(%rbp), %rdx
	movl	(%rdx), %eax
	movq	-352(%rbp), %rdx
	cmpl	(%rdx), %eax
	movb	%cl, -2565(%rbp)        ## 1-byte Spill
	jl	LBB11_101
## BB#100:                              ##   in Loop: Header=BB11_93 Depth=4
	movq	-352(%rbp), %rax
	movl	4(%rax), %ecx
	movq	-360(%rbp), %rax
	cmpl	4(%rax), %ecx
	setl	%dl
	movb	%dl, -2565(%rbp)        ## 1-byte Spill
LBB11_101:                              ##   in Loop: Header=BB11_93 Depth=4
	movb	-2565(%rbp), %al        ## 1-byte Reload
	movb	%al, -2564(%rbp)        ## 1-byte Spill
LBB11_102:                              ## %_ZNSt3__1ltIiiEEbRKNS_4pairIT_T0_EES6_.exit1.i.i.35
                                        ##   in Loop: Header=BB11_93 Depth=4
	movb	-2564(%rbp), %al        ## 1-byte Reload
	xorl	%ecx, %ecx
	movb	%cl, %dl
	testb	$1, %al
	movb	%dl, -2566(%rbp)        ## 1-byte Spill
	jne	LBB11_104
## BB#103:                              ##   in Loop: Header=BB11_93 Depth=4
	movq	-384(%rbp), %rax
	movl	8(%rax), %ecx
	movq	-392(%rbp), %rax
	cmpl	8(%rax), %ecx
	setl	%dl
	movb	%dl, -2566(%rbp)        ## 1-byte Spill
LBB11_104:                              ##   in Loop: Header=BB11_93 Depth=4
	movb	-2566(%rbp), %al        ## 1-byte Reload
	movb	%al, -2563(%rbp)        ## 1-byte Spill
LBB11_105:                              ## %_ZNKSt3__16__lessINS_4pairINS1_IiiEEiEES3_EclERKS3_S6_.exit36
                                        ##   in Loop: Header=BB11_93 Depth=4
	movb	-2563(%rbp), %al        ## 1-byte Reload
	testb	$1, %al
	jne	LBB11_106
	jmp	LBB11_107
LBB11_106:                              ##   in Loop: Header=BB11_93 Depth=4
	jmp	LBB11_93
LBB11_107:                              ##   in Loop: Header=BB11_77 Depth=3
	movq	-2432(%rbp), %rax
	cmpq	-2440(%rbp), %rax
	jb	LBB11_109
## BB#108:                              ##   in Loop: Header=BB11_2 Depth=2
	jmp	LBB11_110
LBB11_109:                              ##   in Loop: Header=BB11_77 Depth=3
	leaq	-460(%rbp), %rax
	leaq	-524(%rbp), %rcx
	leaq	-588(%rbp), %rdx
	movq	-2432(%rbp), %rsi
	movq	-2440(%rbp), %rdi
	movq	%rsi, -680(%rbp)
	movq	%rdi, -688(%rbp)
	movq	-680(%rbp), %rsi
	movq	-688(%rbp), %rdi
	movq	%rsi, -664(%rbp)
	movq	%rdi, -672(%rbp)
	movq	-664(%rbp), %rsi
	movq	-672(%rbp), %rdi
	movq	%rsi, -648(%rbp)
	movq	%rdi, -656(%rbp)
	movq	-648(%rbp), %rdi
	movq	-656(%rbp), %r8
	movq	%rdi, -632(%rbp)
	movq	%r8, -640(%rbp)
	movq	-632(%rbp), %rdi
	movq	-640(%rbp), %r8
	movq	%rdi, -616(%rbp)
	movq	%r8, -624(%rbp)
	movq	-616(%rbp), %rdi
	movq	-624(%rbp), %r8
	movq	%rdi, -600(%rbp)
	movq	%r8, -608(%rbp)
	movq	-600(%rbp), %r8
	movq	-608(%rbp), %r9
	movq	%r8, -576(%rbp)
	movq	%r9, -584(%rbp)
	movq	-576(%rbp), %r8
	movq	%r8, -568(%rbp)
	movq	-568(%rbp), %r8
	movl	(%r8), %r10d
	movl	%r10d, -588(%rbp)
	movq	-584(%rbp), %r8
	movq	%r8, -552(%rbp)
	movq	-552(%rbp), %r8
	movl	(%r8), %r10d
	movq	-576(%rbp), %r8
	movl	%r10d, (%r8)
	movq	%rdx, -560(%rbp)
	movq	-560(%rbp), %rdx
	movl	(%rdx), %r10d
	movq	-584(%rbp), %rdx
	movl	%r10d, (%rdx)
	addq	$4, %rdi
	movq	-624(%rbp), %rdx
	addq	$4, %rdx
	movq	%rdi, -536(%rbp)
	movq	%rdx, -544(%rbp)
	movq	-536(%rbp), %rdx
	movq	-544(%rbp), %rdi
	movq	%rdx, -512(%rbp)
	movq	%rdi, -520(%rbp)
	movq	-512(%rbp), %rdx
	movq	%rdx, -504(%rbp)
	movq	-504(%rbp), %rdx
	movl	(%rdx), %r10d
	movl	%r10d, -524(%rbp)
	movq	-520(%rbp), %rdx
	movq	%rdx, -488(%rbp)
	movq	-488(%rbp), %rdx
	movl	(%rdx), %r10d
	movq	-512(%rbp), %rdx
	movl	%r10d, (%rdx)
	movq	%rcx, -496(%rbp)
	movq	-496(%rbp), %rcx
	movl	(%rcx), %r10d
	movq	-520(%rbp), %rcx
	movl	%r10d, (%rcx)
	addq	$8, %rsi
	movq	-672(%rbp), %rcx
	addq	$8, %rcx
	movq	%rsi, -472(%rbp)
	movq	%rcx, -480(%rbp)
	movq	-472(%rbp), %rcx
	movq	-480(%rbp), %rdx
	movq	%rcx, -448(%rbp)
	movq	%rdx, -456(%rbp)
	movq	-448(%rbp), %rcx
	movq	%rcx, -440(%rbp)
	movq	-440(%rbp), %rcx
	movl	(%rcx), %r10d
	movl	%r10d, -460(%rbp)
	movq	-456(%rbp), %rcx
	movq	%rcx, -424(%rbp)
	movq	-424(%rbp), %rcx
	movl	(%rcx), %r10d
	movq	-448(%rbp), %rcx
	movl	%r10d, (%rcx)
	movq	%rax, -432(%rbp)
	movq	-432(%rbp), %rax
	movl	(%rax), %r10d
	movq	-456(%rbp), %rax
	movl	%r10d, (%rax)
	movl	-2412(%rbp), %r10d
	addl	$1, %r10d
	movl	%r10d, -2412(%rbp)
	movq	-2432(%rbp), %rax
	addq	$12, %rax
	movq	%rax, -2432(%rbp)
	jmp	LBB11_77
LBB11_110:                              ##   in Loop: Header=BB11_2 Depth=2
	movq	-2432(%rbp), %rax
	movq	%rax, -2360(%rbp)
	jmp	LBB11_2
LBB11_111:                              ##   in Loop: Header=BB11_41 Depth=3
	movb	$1, %al
	movq	-2376(%rbp), %rcx
	movq	-2440(%rbp), %rdx
	movq	-2400(%rbp), %rsi
	movq	%rcx, -744(%rbp)
	movq	%rdx, -752(%rbp)
	movq	%rsi, -760(%rbp)
	movq	-752(%rbp), %rcx
	movq	-760(%rbp), %rdx
	movq	%rcx, -728(%rbp)
	movq	%rdx, -736(%rbp)
	movq	-728(%rbp), %rcx
	movq	-736(%rbp), %rdx
	movq	%rcx, -712(%rbp)
	movq	%rdx, -720(%rbp)
	movq	-712(%rbp), %rcx
	movl	(%rcx), %edi
	movq	-720(%rbp), %rcx
	cmpl	(%rcx), %edi
	movb	%al, -2567(%rbp)        ## 1-byte Spill
	jl	LBB11_115
## BB#112:                              ##   in Loop: Header=BB11_41 Depth=3
	xorl	%eax, %eax
	movb	%al, %cl
	movq	-720(%rbp), %rdx
	movl	(%rdx), %eax
	movq	-712(%rbp), %rdx
	cmpl	(%rdx), %eax
	movb	%cl, -2568(%rbp)        ## 1-byte Spill
	jl	LBB11_114
## BB#113:                              ##   in Loop: Header=BB11_41 Depth=3
	movq	-712(%rbp), %rax
	movl	4(%rax), %ecx
	movq	-720(%rbp), %rax
	cmpl	4(%rax), %ecx
	setl	%dl
	movb	%dl, -2568(%rbp)        ## 1-byte Spill
LBB11_114:                              ##   in Loop: Header=BB11_41 Depth=3
	movb	-2568(%rbp), %al        ## 1-byte Reload
	movb	%al, -2567(%rbp)        ## 1-byte Spill
LBB11_115:                              ## %_ZNSt3__1ltIiiEEbRKNS_4pairIT_T0_EES6_.exit.i.i.28
                                        ##   in Loop: Header=BB11_41 Depth=3
	movb	-2567(%rbp), %al        ## 1-byte Reload
	movb	$1, %cl
	testb	$1, %al
	movb	%cl, -2569(%rbp)        ## 1-byte Spill
	jne	LBB11_123
## BB#116:                              ##   in Loop: Header=BB11_41 Depth=3
	movb	$1, %al
	movq	-736(%rbp), %rcx
	movq	-728(%rbp), %rdx
	movq	%rcx, -696(%rbp)
	movq	%rdx, -704(%rbp)
	movq	-696(%rbp), %rcx
	movl	(%rcx), %esi
	movq	-704(%rbp), %rcx
	cmpl	(%rcx), %esi
	movb	%al, -2570(%rbp)        ## 1-byte Spill
	jl	LBB11_120
## BB#117:                              ##   in Loop: Header=BB11_41 Depth=3
	xorl	%eax, %eax
	movb	%al, %cl
	movq	-704(%rbp), %rdx
	movl	(%rdx), %eax
	movq	-696(%rbp), %rdx
	cmpl	(%rdx), %eax
	movb	%cl, -2571(%rbp)        ## 1-byte Spill
	jl	LBB11_119
## BB#118:                              ##   in Loop: Header=BB11_41 Depth=3
	movq	-696(%rbp), %rax
	movl	4(%rax), %ecx
	movq	-704(%rbp), %rax
	cmpl	4(%rax), %ecx
	setl	%dl
	movb	%dl, -2571(%rbp)        ## 1-byte Spill
LBB11_119:                              ##   in Loop: Header=BB11_41 Depth=3
	movb	-2571(%rbp), %al        ## 1-byte Reload
	movb	%al, -2570(%rbp)        ## 1-byte Spill
LBB11_120:                              ## %_ZNSt3__1ltIiiEEbRKNS_4pairIT_T0_EES6_.exit1.i.i.29
                                        ##   in Loop: Header=BB11_41 Depth=3
	movb	-2570(%rbp), %al        ## 1-byte Reload
	xorl	%ecx, %ecx
	movb	%cl, %dl
	testb	$1, %al
	movb	%dl, -2572(%rbp)        ## 1-byte Spill
	jne	LBB11_122
## BB#121:                              ##   in Loop: Header=BB11_41 Depth=3
	movq	-728(%rbp), %rax
	movl	8(%rax), %ecx
	movq	-736(%rbp), %rax
	cmpl	8(%rax), %ecx
	setl	%dl
	movb	%dl, -2572(%rbp)        ## 1-byte Spill
LBB11_122:                              ##   in Loop: Header=BB11_41 Depth=3
	movb	-2572(%rbp), %al        ## 1-byte Reload
	movb	%al, -2569(%rbp)        ## 1-byte Spill
LBB11_123:                              ## %_ZNKSt3__16__lessINS_4pairINS1_IiiEEiEES3_EclERKS3_S6_.exit30
                                        ##   in Loop: Header=BB11_41 Depth=3
	movb	-2569(%rbp), %al        ## 1-byte Reload
	testb	$1, %al
	jne	LBB11_124
	jmp	LBB11_125
LBB11_124:                              ##   in Loop: Header=BB11_1 Depth=1
	leaq	-804(%rbp), %rax
	leaq	-868(%rbp), %rcx
	leaq	-932(%rbp), %rdx
	movq	-2432(%rbp), %rsi
	movq	-2440(%rbp), %rdi
	movq	%rsi, -1024(%rbp)
	movq	%rdi, -1032(%rbp)
	movq	-1024(%rbp), %rsi
	movq	-1032(%rbp), %rdi
	movq	%rsi, -1008(%rbp)
	movq	%rdi, -1016(%rbp)
	movq	-1008(%rbp), %rsi
	movq	-1016(%rbp), %rdi
	movq	%rsi, -992(%rbp)
	movq	%rdi, -1000(%rbp)
	movq	-992(%rbp), %rdi
	movq	-1000(%rbp), %r8
	movq	%rdi, -976(%rbp)
	movq	%r8, -984(%rbp)
	movq	-976(%rbp), %rdi
	movq	-984(%rbp), %r8
	movq	%rdi, -960(%rbp)
	movq	%r8, -968(%rbp)
	movq	-960(%rbp), %rdi
	movq	-968(%rbp), %r8
	movq	%rdi, -944(%rbp)
	movq	%r8, -952(%rbp)
	movq	-944(%rbp), %r8
	movq	-952(%rbp), %r9
	movq	%r8, -920(%rbp)
	movq	%r9, -928(%rbp)
	movq	-920(%rbp), %r8
	movq	%r8, -912(%rbp)
	movq	-912(%rbp), %r8
	movl	(%r8), %r10d
	movl	%r10d, -932(%rbp)
	movq	-928(%rbp), %r8
	movq	%r8, -896(%rbp)
	movq	-896(%rbp), %r8
	movl	(%r8), %r10d
	movq	-920(%rbp), %r8
	movl	%r10d, (%r8)
	movq	%rdx, -904(%rbp)
	movq	-904(%rbp), %rdx
	movl	(%rdx), %r10d
	movq	-928(%rbp), %rdx
	movl	%r10d, (%rdx)
	addq	$4, %rdi
	movq	-968(%rbp), %rdx
	addq	$4, %rdx
	movq	%rdi, -880(%rbp)
	movq	%rdx, -888(%rbp)
	movq	-880(%rbp), %rdx
	movq	-888(%rbp), %rdi
	movq	%rdx, -856(%rbp)
	movq	%rdi, -864(%rbp)
	movq	-856(%rbp), %rdx
	movq	%rdx, -848(%rbp)
	movq	-848(%rbp), %rdx
	movl	(%rdx), %r10d
	movl	%r10d, -868(%rbp)
	movq	-864(%rbp), %rdx
	movq	%rdx, -832(%rbp)
	movq	-832(%rbp), %rdx
	movl	(%rdx), %r10d
	movq	-856(%rbp), %rdx
	movl	%r10d, (%rdx)
	movq	%rcx, -840(%rbp)
	movq	-840(%rbp), %rcx
	movl	(%rcx), %r10d
	movq	-864(%rbp), %rcx
	movl	%r10d, (%rcx)
	addq	$8, %rsi
	movq	-1016(%rbp), %rcx
	addq	$8, %rcx
	movq	%rsi, -816(%rbp)
	movq	%rcx, -824(%rbp)
	movq	-816(%rbp), %rcx
	movq	-824(%rbp), %rdx
	movq	%rcx, -792(%rbp)
	movq	%rdx, -800(%rbp)
	movq	-792(%rbp), %rcx
	movq	%rcx, -784(%rbp)
	movq	-784(%rbp), %rcx
	movl	(%rcx), %r10d
	movl	%r10d, -804(%rbp)
	movq	-800(%rbp), %rcx
	movq	%rcx, -768(%rbp)
	movq	-768(%rbp), %rcx
	movl	(%rcx), %r10d
	movq	-792(%rbp), %rcx
	movl	%r10d, (%rcx)
	movq	%rax, -776(%rbp)
	movq	-776(%rbp), %rax
	movl	(%rax), %r10d
	movq	-800(%rbp), %rax
	movl	%r10d, (%rax)
	movl	-2412(%rbp), %r10d
	addl	$1, %r10d
	movl	%r10d, -2412(%rbp)
	jmp	LBB11_126
LBB11_125:                              ##   in Loop: Header=BB11_41 Depth=3
	jmp	LBB11_41
LBB11_126:                              ##   in Loop: Header=BB11_1 Depth=1
	jmp	LBB11_127
LBB11_127:                              ##   in Loop: Header=BB11_1 Depth=1
	movq	-2432(%rbp), %rax
	addq	$12, %rax
	movq	%rax, -2432(%rbp)
	movq	-2432(%rbp), %rax
	cmpq	-2440(%rbp), %rax
	jae	LBB11_165
## BB#128:                              ##   in Loop: Header=BB11_1 Depth=1
	jmp	LBB11_129
LBB11_129:                              ##   Parent Loop BB11_1 Depth=1
                                        ## =>  This Loop Header: Depth=2
                                        ##       Child Loop BB11_130 Depth 3
                                        ##       Child Loop BB11_145 Depth 3
	jmp	LBB11_130
LBB11_130:                              ##   Parent Loop BB11_1 Depth=1
                                        ##     Parent Loop BB11_129 Depth=2
                                        ## =>    This Inner Loop Header: Depth=3
	movb	$1, %al
	movq	-2376(%rbp), %rcx
	movq	-2432(%rbp), %rdx
	movq	-2400(%rbp), %rsi
	movq	%rcx, -1088(%rbp)
	movq	%rdx, -1096(%rbp)
	movq	%rsi, -1104(%rbp)
	movq	-1096(%rbp), %rcx
	movq	-1104(%rbp), %rdx
	movq	%rcx, -1072(%rbp)
	movq	%rdx, -1080(%rbp)
	movq	-1072(%rbp), %rcx
	movq	-1080(%rbp), %rdx
	movq	%rcx, -1056(%rbp)
	movq	%rdx, -1064(%rbp)
	movq	-1056(%rbp), %rcx
	movl	(%rcx), %edi
	movq	-1064(%rbp), %rcx
	cmpl	(%rcx), %edi
	movb	%al, -2573(%rbp)        ## 1-byte Spill
	jl	LBB11_134
## BB#131:                              ##   in Loop: Header=BB11_130 Depth=3
	xorl	%eax, %eax
	movb	%al, %cl
	movq	-1064(%rbp), %rdx
	movl	(%rdx), %eax
	movq	-1056(%rbp), %rdx
	cmpl	(%rdx), %eax
	movb	%cl, -2574(%rbp)        ## 1-byte Spill
	jl	LBB11_133
## BB#132:                              ##   in Loop: Header=BB11_130 Depth=3
	movq	-1056(%rbp), %rax
	movl	4(%rax), %ecx
	movq	-1064(%rbp), %rax
	cmpl	4(%rax), %ecx
	setl	%dl
	movb	%dl, -2574(%rbp)        ## 1-byte Spill
LBB11_133:                              ##   in Loop: Header=BB11_130 Depth=3
	movb	-2574(%rbp), %al        ## 1-byte Reload
	movb	%al, -2573(%rbp)        ## 1-byte Spill
LBB11_134:                              ## %_ZNSt3__1ltIiiEEbRKNS_4pairIT_T0_EES6_.exit.i.i.22
                                        ##   in Loop: Header=BB11_130 Depth=3
	movb	-2573(%rbp), %al        ## 1-byte Reload
	movb	$1, %cl
	testb	$1, %al
	movb	%cl, -2575(%rbp)        ## 1-byte Spill
	jne	LBB11_142
## BB#135:                              ##   in Loop: Header=BB11_130 Depth=3
	movb	$1, %al
	movq	-1080(%rbp), %rcx
	movq	-1072(%rbp), %rdx
	movq	%rcx, -1040(%rbp)
	movq	%rdx, -1048(%rbp)
	movq	-1040(%rbp), %rcx
	movl	(%rcx), %esi
	movq	-1048(%rbp), %rcx
	cmpl	(%rcx), %esi
	movb	%al, -2576(%rbp)        ## 1-byte Spill
	jl	LBB11_139
## BB#136:                              ##   in Loop: Header=BB11_130 Depth=3
	xorl	%eax, %eax
	movb	%al, %cl
	movq	-1048(%rbp), %rdx
	movl	(%rdx), %eax
	movq	-1040(%rbp), %rdx
	cmpl	(%rdx), %eax
	movb	%cl, -2577(%rbp)        ## 1-byte Spill
	jl	LBB11_138
## BB#137:                              ##   in Loop: Header=BB11_130 Depth=3
	movq	-1040(%rbp), %rax
	movl	4(%rax), %ecx
	movq	-1048(%rbp), %rax
	cmpl	4(%rax), %ecx
	setl	%dl
	movb	%dl, -2577(%rbp)        ## 1-byte Spill
LBB11_138:                              ##   in Loop: Header=BB11_130 Depth=3
	movb	-2577(%rbp), %al        ## 1-byte Reload
	movb	%al, -2576(%rbp)        ## 1-byte Spill
LBB11_139:                              ## %_ZNSt3__1ltIiiEEbRKNS_4pairIT_T0_EES6_.exit1.i.i.23
                                        ##   in Loop: Header=BB11_130 Depth=3
	movb	-2576(%rbp), %al        ## 1-byte Reload
	xorl	%ecx, %ecx
	movb	%cl, %dl
	testb	$1, %al
	movb	%dl, -2578(%rbp)        ## 1-byte Spill
	jne	LBB11_141
## BB#140:                              ##   in Loop: Header=BB11_130 Depth=3
	movq	-1072(%rbp), %rax
	movl	8(%rax), %ecx
	movq	-1080(%rbp), %rax
	cmpl	8(%rax), %ecx
	setl	%dl
	movb	%dl, -2578(%rbp)        ## 1-byte Spill
LBB11_141:                              ##   in Loop: Header=BB11_130 Depth=3
	movb	-2578(%rbp), %al        ## 1-byte Reload
	movb	%al, -2575(%rbp)        ## 1-byte Spill
LBB11_142:                              ## %_ZNKSt3__16__lessINS_4pairINS1_IiiEEiEES3_EclERKS3_S6_.exit24
                                        ##   in Loop: Header=BB11_130 Depth=3
	movb	-2575(%rbp), %al        ## 1-byte Reload
	testb	$1, %al
	jne	LBB11_143
	jmp	LBB11_144
LBB11_143:                              ##   in Loop: Header=BB11_130 Depth=3
	movq	-2432(%rbp), %rax
	addq	$12, %rax
	movq	%rax, -2432(%rbp)
	jmp	LBB11_130
LBB11_144:                              ##   in Loop: Header=BB11_129 Depth=2
	jmp	LBB11_145
LBB11_145:                              ##   Parent Loop BB11_1 Depth=1
                                        ##     Parent Loop BB11_129 Depth=2
                                        ## =>    This Inner Loop Header: Depth=3
	movb	$1, %al
	movq	-2376(%rbp), %rcx
	movq	-2440(%rbp), %rdx
	addq	$-12, %rdx
	movq	%rdx, -2440(%rbp)
	movq	-2400(%rbp), %rsi
	movq	%rcx, -1160(%rbp)
	movq	%rdx, -1168(%rbp)
	movq	%rsi, -1176(%rbp)
	movq	-1168(%rbp), %rcx
	movq	-1176(%rbp), %rdx
	movq	%rcx, -1144(%rbp)
	movq	%rdx, -1152(%rbp)
	movq	-1144(%rbp), %rcx
	movq	-1152(%rbp), %rdx
	movq	%rcx, -1128(%rbp)
	movq	%rdx, -1136(%rbp)
	movq	-1128(%rbp), %rcx
	movl	(%rcx), %edi
	movq	-1136(%rbp), %rcx
	cmpl	(%rcx), %edi
	movb	%al, -2579(%rbp)        ## 1-byte Spill
	jl	LBB11_149
## BB#146:                              ##   in Loop: Header=BB11_145 Depth=3
	xorl	%eax, %eax
	movb	%al, %cl
	movq	-1136(%rbp), %rdx
	movl	(%rdx), %eax
	movq	-1128(%rbp), %rdx
	cmpl	(%rdx), %eax
	movb	%cl, -2580(%rbp)        ## 1-byte Spill
	jl	LBB11_148
## BB#147:                              ##   in Loop: Header=BB11_145 Depth=3
	movq	-1128(%rbp), %rax
	movl	4(%rax), %ecx
	movq	-1136(%rbp), %rax
	cmpl	4(%rax), %ecx
	setl	%dl
	movb	%dl, -2580(%rbp)        ## 1-byte Spill
LBB11_148:                              ##   in Loop: Header=BB11_145 Depth=3
	movb	-2580(%rbp), %al        ## 1-byte Reload
	movb	%al, -2579(%rbp)        ## 1-byte Spill
LBB11_149:                              ## %_ZNSt3__1ltIiiEEbRKNS_4pairIT_T0_EES6_.exit.i.i.19
                                        ##   in Loop: Header=BB11_145 Depth=3
	movb	-2579(%rbp), %al        ## 1-byte Reload
	movb	$1, %cl
	testb	$1, %al
	movb	%cl, -2581(%rbp)        ## 1-byte Spill
	jne	LBB11_157
## BB#150:                              ##   in Loop: Header=BB11_145 Depth=3
	movb	$1, %al
	movq	-1152(%rbp), %rcx
	movq	-1144(%rbp), %rdx
	movq	%rcx, -1112(%rbp)
	movq	%rdx, -1120(%rbp)
	movq	-1112(%rbp), %rcx
	movl	(%rcx), %esi
	movq	-1120(%rbp), %rcx
	cmpl	(%rcx), %esi
	movb	%al, -2582(%rbp)        ## 1-byte Spill
	jl	LBB11_154
## BB#151:                              ##   in Loop: Header=BB11_145 Depth=3
	xorl	%eax, %eax
	movb	%al, %cl
	movq	-1120(%rbp), %rdx
	movl	(%rdx), %eax
	movq	-1112(%rbp), %rdx
	cmpl	(%rdx), %eax
	movb	%cl, -2583(%rbp)        ## 1-byte Spill
	jl	LBB11_153
## BB#152:                              ##   in Loop: Header=BB11_145 Depth=3
	movq	-1112(%rbp), %rax
	movl	4(%rax), %ecx
	movq	-1120(%rbp), %rax
	cmpl	4(%rax), %ecx
	setl	%dl
	movb	%dl, -2583(%rbp)        ## 1-byte Spill
LBB11_153:                              ##   in Loop: Header=BB11_145 Depth=3
	movb	-2583(%rbp), %al        ## 1-byte Reload
	movb	%al, -2582(%rbp)        ## 1-byte Spill
LBB11_154:                              ## %_ZNSt3__1ltIiiEEbRKNS_4pairIT_T0_EES6_.exit1.i.i.20
                                        ##   in Loop: Header=BB11_145 Depth=3
	movb	-2582(%rbp), %al        ## 1-byte Reload
	xorl	%ecx, %ecx
	movb	%cl, %dl
	testb	$1, %al
	movb	%dl, -2584(%rbp)        ## 1-byte Spill
	jne	LBB11_156
## BB#155:                              ##   in Loop: Header=BB11_145 Depth=3
	movq	-1144(%rbp), %rax
	movl	8(%rax), %ecx
	movq	-1152(%rbp), %rax
	cmpl	8(%rax), %ecx
	setl	%dl
	movb	%dl, -2584(%rbp)        ## 1-byte Spill
LBB11_156:                              ##   in Loop: Header=BB11_145 Depth=3
	movb	-2584(%rbp), %al        ## 1-byte Reload
	movb	%al, -2581(%rbp)        ## 1-byte Spill
LBB11_157:                              ## %_ZNKSt3__16__lessINS_4pairINS1_IiiEEiEES3_EclERKS3_S6_.exit21
                                        ##   in Loop: Header=BB11_145 Depth=3
	movb	-2581(%rbp), %al        ## 1-byte Reload
	xorb	$-1, %al
	testb	$1, %al
	jne	LBB11_158
	jmp	LBB11_159
LBB11_158:                              ##   in Loop: Header=BB11_145 Depth=3
	jmp	LBB11_145
LBB11_159:                              ##   in Loop: Header=BB11_129 Depth=2
	movq	-2432(%rbp), %rax
	cmpq	-2440(%rbp), %rax
	jbe	LBB11_161
## BB#160:                              ##   in Loop: Header=BB11_1 Depth=1
	jmp	LBB11_164
LBB11_161:                              ##   in Loop: Header=BB11_129 Depth=2
	leaq	-1220(%rbp), %rax
	leaq	-1284(%rbp), %rcx
	leaq	-1348(%rbp), %rdx
	movq	-2432(%rbp), %rsi
	movq	-2440(%rbp), %rdi
	movq	%rsi, -1440(%rbp)
	movq	%rdi, -1448(%rbp)
	movq	-1440(%rbp), %rsi
	movq	-1448(%rbp), %rdi
	movq	%rsi, -1424(%rbp)
	movq	%rdi, -1432(%rbp)
	movq	-1424(%rbp), %rsi
	movq	-1432(%rbp), %rdi
	movq	%rsi, -1408(%rbp)
	movq	%rdi, -1416(%rbp)
	movq	-1408(%rbp), %rdi
	movq	-1416(%rbp), %r8
	movq	%rdi, -1392(%rbp)
	movq	%r8, -1400(%rbp)
	movq	-1392(%rbp), %rdi
	movq	-1400(%rbp), %r8
	movq	%rdi, -1376(%rbp)
	movq	%r8, -1384(%rbp)
	movq	-1376(%rbp), %rdi
	movq	-1384(%rbp), %r8
	movq	%rdi, -1360(%rbp)
	movq	%r8, -1368(%rbp)
	movq	-1360(%rbp), %r8
	movq	-1368(%rbp), %r9
	movq	%r8, -1336(%rbp)
	movq	%r9, -1344(%rbp)
	movq	-1336(%rbp), %r8
	movq	%r8, -1328(%rbp)
	movq	-1328(%rbp), %r8
	movl	(%r8), %r10d
	movl	%r10d, -1348(%rbp)
	movq	-1344(%rbp), %r8
	movq	%r8, -1312(%rbp)
	movq	-1312(%rbp), %r8
	movl	(%r8), %r10d
	movq	-1336(%rbp), %r8
	movl	%r10d, (%r8)
	movq	%rdx, -1320(%rbp)
	movq	-1320(%rbp), %rdx
	movl	(%rdx), %r10d
	movq	-1344(%rbp), %rdx
	movl	%r10d, (%rdx)
	addq	$4, %rdi
	movq	-1384(%rbp), %rdx
	addq	$4, %rdx
	movq	%rdi, -1296(%rbp)
	movq	%rdx, -1304(%rbp)
	movq	-1296(%rbp), %rdx
	movq	-1304(%rbp), %rdi
	movq	%rdx, -1272(%rbp)
	movq	%rdi, -1280(%rbp)
	movq	-1272(%rbp), %rdx
	movq	%rdx, -1264(%rbp)
	movq	-1264(%rbp), %rdx
	movl	(%rdx), %r10d
	movl	%r10d, -1284(%rbp)
	movq	-1280(%rbp), %rdx
	movq	%rdx, -1248(%rbp)
	movq	-1248(%rbp), %rdx
	movl	(%rdx), %r10d
	movq	-1272(%rbp), %rdx
	movl	%r10d, (%rdx)
	movq	%rcx, -1256(%rbp)
	movq	-1256(%rbp), %rcx
	movl	(%rcx), %r10d
	movq	-1280(%rbp), %rcx
	movl	%r10d, (%rcx)
	addq	$8, %rsi
	movq	-1432(%rbp), %rcx
	addq	$8, %rcx
	movq	%rsi, -1232(%rbp)
	movq	%rcx, -1240(%rbp)
	movq	-1232(%rbp), %rcx
	movq	-1240(%rbp), %rdx
	movq	%rcx, -1208(%rbp)
	movq	%rdx, -1216(%rbp)
	movq	-1208(%rbp), %rcx
	movq	%rcx, -1200(%rbp)
	movq	-1200(%rbp), %rcx
	movl	(%rcx), %r10d
	movl	%r10d, -1220(%rbp)
	movq	-1216(%rbp), %rcx
	movq	%rcx, -1184(%rbp)
	movq	-1184(%rbp), %rcx
	movl	(%rcx), %r10d
	movq	-1208(%rbp), %rcx
	movl	%r10d, (%rcx)
	movq	%rax, -1192(%rbp)
	movq	-1192(%rbp), %rax
	movl	(%rax), %r10d
	movq	-1216(%rbp), %rax
	movl	%r10d, (%rax)
	movl	-2412(%rbp), %r10d
	addl	$1, %r10d
	movl	%r10d, -2412(%rbp)
	movq	-2400(%rbp), %rax
	cmpq	-2432(%rbp), %rax
	jne	LBB11_163
## BB#162:                              ##   in Loop: Header=BB11_129 Depth=2
	movq	-2440(%rbp), %rax
	movq	%rax, -2400(%rbp)
LBB11_163:                              ##   in Loop: Header=BB11_129 Depth=2
	movq	-2432(%rbp), %rax
	addq	$12, %rax
	movq	%rax, -2432(%rbp)
	jmp	LBB11_129
LBB11_164:                              ##   in Loop: Header=BB11_1 Depth=1
	jmp	LBB11_165
LBB11_165:                              ##   in Loop: Header=BB11_1 Depth=1
	movq	-2432(%rbp), %rax
	cmpq	-2400(%rbp), %rax
	je	LBB11_180
## BB#166:                              ##   in Loop: Header=BB11_1 Depth=1
	movb	$1, %al
	movq	-2376(%rbp), %rcx
	movq	-2400(%rbp), %rdx
	movq	-2432(%rbp), %rsi
	movq	%rcx, -1504(%rbp)
	movq	%rdx, -1512(%rbp)
	movq	%rsi, -1520(%rbp)
	movq	-1512(%rbp), %rcx
	movq	-1520(%rbp), %rdx
	movq	%rcx, -1488(%rbp)
	movq	%rdx, -1496(%rbp)
	movq	-1488(%rbp), %rcx
	movq	-1496(%rbp), %rdx
	movq	%rcx, -1472(%rbp)
	movq	%rdx, -1480(%rbp)
	movq	-1472(%rbp), %rcx
	movl	(%rcx), %edi
	movq	-1480(%rbp), %rcx
	cmpl	(%rcx), %edi
	movb	%al, -2585(%rbp)        ## 1-byte Spill
	jl	LBB11_170
## BB#167:                              ##   in Loop: Header=BB11_1 Depth=1
	xorl	%eax, %eax
	movb	%al, %cl
	movq	-1480(%rbp), %rdx
	movl	(%rdx), %eax
	movq	-1472(%rbp), %rdx
	cmpl	(%rdx), %eax
	movb	%cl, -2586(%rbp)        ## 1-byte Spill
	jl	LBB11_169
## BB#168:                              ##   in Loop: Header=BB11_1 Depth=1
	movq	-1472(%rbp), %rax
	movl	4(%rax), %ecx
	movq	-1480(%rbp), %rax
	cmpl	4(%rax), %ecx
	setl	%dl
	movb	%dl, -2586(%rbp)        ## 1-byte Spill
LBB11_169:                              ##   in Loop: Header=BB11_1 Depth=1
	movb	-2586(%rbp), %al        ## 1-byte Reload
	movb	%al, -2585(%rbp)        ## 1-byte Spill
LBB11_170:                              ## %_ZNSt3__1ltIiiEEbRKNS_4pairIT_T0_EES6_.exit.i.i.13
                                        ##   in Loop: Header=BB11_1 Depth=1
	movb	-2585(%rbp), %al        ## 1-byte Reload
	movb	$1, %cl
	testb	$1, %al
	movb	%cl, -2587(%rbp)        ## 1-byte Spill
	jne	LBB11_178
## BB#171:                              ##   in Loop: Header=BB11_1 Depth=1
	movb	$1, %al
	movq	-1496(%rbp), %rcx
	movq	-1488(%rbp), %rdx
	movq	%rcx, -1456(%rbp)
	movq	%rdx, -1464(%rbp)
	movq	-1456(%rbp), %rcx
	movl	(%rcx), %esi
	movq	-1464(%rbp), %rcx
	cmpl	(%rcx), %esi
	movb	%al, -2588(%rbp)        ## 1-byte Spill
	jl	LBB11_175
## BB#172:                              ##   in Loop: Header=BB11_1 Depth=1
	xorl	%eax, %eax
	movb	%al, %cl
	movq	-1464(%rbp), %rdx
	movl	(%rdx), %eax
	movq	-1456(%rbp), %rdx
	cmpl	(%rdx), %eax
	movb	%cl, -2589(%rbp)        ## 1-byte Spill
	jl	LBB11_174
## BB#173:                              ##   in Loop: Header=BB11_1 Depth=1
	movq	-1456(%rbp), %rax
	movl	4(%rax), %ecx
	movq	-1464(%rbp), %rax
	cmpl	4(%rax), %ecx
	setl	%dl
	movb	%dl, -2589(%rbp)        ## 1-byte Spill
LBB11_174:                              ##   in Loop: Header=BB11_1 Depth=1
	movb	-2589(%rbp), %al        ## 1-byte Reload
	movb	%al, -2588(%rbp)        ## 1-byte Spill
LBB11_175:                              ## %_ZNSt3__1ltIiiEEbRKNS_4pairIT_T0_EES6_.exit1.i.i.14
                                        ##   in Loop: Header=BB11_1 Depth=1
	movb	-2588(%rbp), %al        ## 1-byte Reload
	xorl	%ecx, %ecx
	movb	%cl, %dl
	testb	$1, %al
	movb	%dl, -2590(%rbp)        ## 1-byte Spill
	jne	LBB11_177
## BB#176:                              ##   in Loop: Header=BB11_1 Depth=1
	movq	-1488(%rbp), %rax
	movl	8(%rax), %ecx
	movq	-1496(%rbp), %rax
	cmpl	8(%rax), %ecx
	setl	%dl
	movb	%dl, -2590(%rbp)        ## 1-byte Spill
LBB11_177:                              ##   in Loop: Header=BB11_1 Depth=1
	movb	-2590(%rbp), %al        ## 1-byte Reload
	movb	%al, -2587(%rbp)        ## 1-byte Spill
LBB11_178:                              ## %_ZNKSt3__16__lessINS_4pairINS1_IiiEEiEES3_EclERKS3_S6_.exit15
                                        ##   in Loop: Header=BB11_1 Depth=1
	movb	-2587(%rbp), %al        ## 1-byte Reload
	testb	$1, %al
	jne	LBB11_179
	jmp	LBB11_180
LBB11_179:                              ##   in Loop: Header=BB11_1 Depth=1
	leaq	-1564(%rbp), %rax
	leaq	-1628(%rbp), %rcx
	leaq	-1692(%rbp), %rdx
	movq	-2432(%rbp), %rsi
	movq	-2400(%rbp), %rdi
	movq	%rsi, -1784(%rbp)
	movq	%rdi, -1792(%rbp)
	movq	-1784(%rbp), %rsi
	movq	-1792(%rbp), %rdi
	movq	%rsi, -1768(%rbp)
	movq	%rdi, -1776(%rbp)
	movq	-1768(%rbp), %rsi
	movq	-1776(%rbp), %rdi
	movq	%rsi, -1752(%rbp)
	movq	%rdi, -1760(%rbp)
	movq	-1752(%rbp), %rdi
	movq	-1760(%rbp), %r8
	movq	%rdi, -1736(%rbp)
	movq	%r8, -1744(%rbp)
	movq	-1736(%rbp), %rdi
	movq	-1744(%rbp), %r8
	movq	%rdi, -1720(%rbp)
	movq	%r8, -1728(%rbp)
	movq	-1720(%rbp), %rdi
	movq	-1728(%rbp), %r8
	movq	%rdi, -1704(%rbp)
	movq	%r8, -1712(%rbp)
	movq	-1704(%rbp), %r8
	movq	-1712(%rbp), %r9
	movq	%r8, -1680(%rbp)
	movq	%r9, -1688(%rbp)
	movq	-1680(%rbp), %r8
	movq	%r8, -1672(%rbp)
	movq	-1672(%rbp), %r8
	movl	(%r8), %r10d
	movl	%r10d, -1692(%rbp)
	movq	-1688(%rbp), %r8
	movq	%r8, -1656(%rbp)
	movq	-1656(%rbp), %r8
	movl	(%r8), %r10d
	movq	-1680(%rbp), %r8
	movl	%r10d, (%r8)
	movq	%rdx, -1664(%rbp)
	movq	-1664(%rbp), %rdx
	movl	(%rdx), %r10d
	movq	-1688(%rbp), %rdx
	movl	%r10d, (%rdx)
	addq	$4, %rdi
	movq	-1728(%rbp), %rdx
	addq	$4, %rdx
	movq	%rdi, -1640(%rbp)
	movq	%rdx, -1648(%rbp)
	movq	-1640(%rbp), %rdx
	movq	-1648(%rbp), %rdi
	movq	%rdx, -1616(%rbp)
	movq	%rdi, -1624(%rbp)
	movq	-1616(%rbp), %rdx
	movq	%rdx, -1608(%rbp)
	movq	-1608(%rbp), %rdx
	movl	(%rdx), %r10d
	movl	%r10d, -1628(%rbp)
	movq	-1624(%rbp), %rdx
	movq	%rdx, -1592(%rbp)
	movq	-1592(%rbp), %rdx
	movl	(%rdx), %r10d
	movq	-1616(%rbp), %rdx
	movl	%r10d, (%rdx)
	movq	%rcx, -1600(%rbp)
	movq	-1600(%rbp), %rcx
	movl	(%rcx), %r10d
	movq	-1624(%rbp), %rcx
	movl	%r10d, (%rcx)
	addq	$8, %rsi
	movq	-1776(%rbp), %rcx
	addq	$8, %rcx
	movq	%rsi, -1576(%rbp)
	movq	%rcx, -1584(%rbp)
	movq	-1576(%rbp), %rcx
	movq	-1584(%rbp), %rdx
	movq	%rcx, -1552(%rbp)
	movq	%rdx, -1560(%rbp)
	movq	-1552(%rbp), %rcx
	movq	%rcx, -1544(%rbp)
	movq	-1544(%rbp), %rcx
	movl	(%rcx), %r10d
	movl	%r10d, -1564(%rbp)
	movq	-1560(%rbp), %rcx
	movq	%rcx, -1528(%rbp)
	movq	-1528(%rbp), %rcx
	movl	(%rcx), %r10d
	movq	-1552(%rbp), %rcx
	movl	%r10d, (%rcx)
	movq	%rax, -1536(%rbp)
	movq	-1536(%rbp), %rax
	movl	(%rax), %r10d
	movq	-1560(%rbp), %rax
	movl	%r10d, (%rax)
	movl	-2412(%rbp), %r10d
	addl	$1, %r10d
	movl	%r10d, -2412(%rbp)
LBB11_180:                              ##   in Loop: Header=BB11_1 Depth=1
	cmpl	$0, -2412(%rbp)
	jne	LBB11_189
## BB#181:                              ##   in Loop: Header=BB11_1 Depth=1
	movq	-2360(%rbp), %rdi
	movq	-2432(%rbp), %rsi
	movq	-2376(%rbp), %rdx
	callq	__ZNSt3__127__insertion_sort_incompleteIRNS_6__lessINS_4pairINS2_IiiEEiEES4_EEPS4_EEbT0_S8_T_
	andb	$1, %al
	movb	%al, -2441(%rbp)
	movq	-2432(%rbp), %rdx
	addq	$12, %rdx
	movq	-2368(%rbp), %rsi
	movq	-2376(%rbp), %rdi
	movq	%rdi, -2600(%rbp)       ## 8-byte Spill
	movq	%rdx, %rdi
	movq	-2600(%rbp), %rdx       ## 8-byte Reload
	callq	__ZNSt3__127__insertion_sort_incompleteIRNS_6__lessINS_4pairINS2_IiiEEiEES4_EEPS4_EEbT0_S8_T_
	testb	$1, %al
	jne	LBB11_182
	jmp	LBB11_185
LBB11_182:                              ##   in Loop: Header=BB11_1 Depth=1
	testb	$1, -2441(%rbp)
	je	LBB11_184
## BB#183:
	jmp	LBB11_193
LBB11_184:                              ##   in Loop: Header=BB11_1 Depth=1
	movq	-2432(%rbp), %rax
	movq	%rax, -2368(%rbp)
	jmp	LBB11_1
LBB11_185:                              ##   in Loop: Header=BB11_1 Depth=1
	testb	$1, -2441(%rbp)
	je	LBB11_187
## BB#186:                              ##   in Loop: Header=BB11_1 Depth=1
	movq	-2432(%rbp), %rax
	addq	$12, %rax
	movq	%rax, -2432(%rbp)
	movq	%rax, -2360(%rbp)
	jmp	LBB11_1
LBB11_187:                              ##   in Loop: Header=BB11_1 Depth=1
	jmp	LBB11_188
LBB11_188:                              ##   in Loop: Header=BB11_1 Depth=1
	jmp	LBB11_189
LBB11_189:                              ##   in Loop: Header=BB11_1 Depth=1
	movl	$12, %eax
	movl	%eax, %ecx
	movq	-2432(%rbp), %rdx
	movq	-2360(%rbp), %rsi
	subq	%rsi, %rdx
	movq	%rdx, %rax
	cqto
	idivq	%rcx
	movq	-2368(%rbp), %rsi
	movq	-2432(%rbp), %rdi
	subq	%rdi, %rsi
	movq	%rax, -2608(%rbp)       ## 8-byte Spill
	movq	%rsi, %rax
	cqto
	idivq	%rcx
	movq	-2608(%rbp), %rcx       ## 8-byte Reload
	cmpq	%rax, %rcx
	jge	LBB11_191
## BB#190:                              ##   in Loop: Header=BB11_1 Depth=1
	movq	-2360(%rbp), %rdi
	movq	-2432(%rbp), %rsi
	movq	-2376(%rbp), %rdx
	callq	__ZNSt3__16__sortIRNS_6__lessINS_4pairINS2_IiiEEiEES4_EEPS4_EEvT0_S8_T_
	movq	-2432(%rbp), %rdx
	addq	$12, %rdx
	movq	%rdx, -2432(%rbp)
	movq	%rdx, -2360(%rbp)
	jmp	LBB11_192
LBB11_191:                              ##   in Loop: Header=BB11_1 Depth=1
	movq	-2432(%rbp), %rax
	addq	$12, %rax
	movq	-2368(%rbp), %rsi
	movq	-2376(%rbp), %rdx
	movq	%rax, %rdi
	callq	__ZNSt3__16__sortIRNS_6__lessINS_4pairINS2_IiiEEiEES4_EEPS4_EEvT0_S8_T_
	movq	-2432(%rbp), %rax
	movq	%rax, -2368(%rbp)
LBB11_192:                              ##   in Loop: Header=BB11_1 Depth=1
	jmp	LBB11_1
LBB11_193:
	addq	$2608, %rsp             ## imm = 0xA30
	popq	%rbp
	retq
	.cfi_endproc
	.align	2, 0x90
L11_0_set_3 = LBB11_3-LJTI11_0
L11_0_set_4 = LBB11_4-LJTI11_0
L11_0_set_19 = LBB11_19-LJTI11_0
L11_0_set_20 = LBB11_20-LJTI11_0
L11_0_set_21 = LBB11_21-LJTI11_0
LJTI11_0:
	.long	L11_0_set_3
	.long	L11_0_set_3
	.long	L11_0_set_4
	.long	L11_0_set_19
	.long	L11_0_set_20
	.long	L11_0_set_21

	.globl	__ZNSt3__17__sort3IRNS_6__lessINS_4pairINS2_IiiEEiEES4_EEPS4_EEjT0_S8_S8_T_
	.weak_def_can_be_hidden	__ZNSt3__17__sort3IRNS_6__lessINS_4pairINS2_IiiEEiEES4_EEPS4_EEjT0_S8_S8_T_
	.align	4, 0x90
__ZNSt3__17__sort3IRNS_6__lessINS_4pairINS2_IiiEEiEES4_EEPS4_EEjT0_S8_S8_T_: ## @_ZNSt3__17__sort3IRNS_6__lessINS_4pairINS2_IiiEEiEES4_EEPS4_EEjT0_S8_S8_T_
	.cfi_startproc
## BB#0:
	pushq	%rbp
Ltmp41:
	.cfi_def_cfa_offset 16
Ltmp42:
	.cfi_offset %rbp, -16
	movq	%rsp, %rbp
Ltmp43:
	.cfi_def_cfa_register %rbp
	subq	$1672, %rsp             ## imm = 0x688
	movb	$1, %al
	movq	%rdi, -1736(%rbp)
	movq	%rsi, -1744(%rbp)
	movq	%rdx, -1752(%rbp)
	movq	%rcx, -1760(%rbp)
	movl	$0, -1764(%rbp)
	movq	-1760(%rbp), %rcx
	movq	-1744(%rbp), %rdx
	movq	-1736(%rbp), %rsi
	movq	%rcx, -1704(%rbp)
	movq	%rdx, -1712(%rbp)
	movq	%rsi, -1720(%rbp)
	movq	-1712(%rbp), %rcx
	movq	-1720(%rbp), %rdx
	movq	%rcx, -1688(%rbp)
	movq	%rdx, -1696(%rbp)
	movq	-1688(%rbp), %rcx
	movq	-1696(%rbp), %rdx
	movq	%rcx, -1672(%rbp)
	movq	%rdx, -1680(%rbp)
	movq	-1672(%rbp), %rcx
	movl	(%rcx), %r8d
	movq	-1680(%rbp), %rcx
	cmpl	(%rcx), %r8d
	movb	%al, -1765(%rbp)        ## 1-byte Spill
	jl	LBB12_4
## BB#1:
	xorl	%eax, %eax
	movb	%al, %cl
	movq	-1680(%rbp), %rdx
	movl	(%rdx), %eax
	movq	-1672(%rbp), %rdx
	cmpl	(%rdx), %eax
	movb	%cl, -1766(%rbp)        ## 1-byte Spill
	jl	LBB12_3
## BB#2:
	movq	-1672(%rbp), %rax
	movl	4(%rax), %ecx
	movq	-1680(%rbp), %rax
	cmpl	4(%rax), %ecx
	setl	%dl
	movb	%dl, -1766(%rbp)        ## 1-byte Spill
LBB12_3:
	movb	-1766(%rbp), %al        ## 1-byte Reload
	movb	%al, -1765(%rbp)        ## 1-byte Spill
LBB12_4:                                ## %_ZNSt3__1ltIiiEEbRKNS_4pairIT_T0_EES6_.exit.i.i
	movb	-1765(%rbp), %al        ## 1-byte Reload
	movb	$1, %cl
	testb	$1, %al
	movb	%cl, -1767(%rbp)        ## 1-byte Spill
	jne	LBB12_12
## BB#5:
	movb	$1, %al
	movq	-1696(%rbp), %rcx
	movq	-1688(%rbp), %rdx
	movq	%rcx, -1656(%rbp)
	movq	%rdx, -1664(%rbp)
	movq	-1656(%rbp), %rcx
	movl	(%rcx), %esi
	movq	-1664(%rbp), %rcx
	cmpl	(%rcx), %esi
	movb	%al, -1768(%rbp)        ## 1-byte Spill
	jl	LBB12_9
## BB#6:
	xorl	%eax, %eax
	movb	%al, %cl
	movq	-1664(%rbp), %rdx
	movl	(%rdx), %eax
	movq	-1656(%rbp), %rdx
	cmpl	(%rdx), %eax
	movb	%cl, -1769(%rbp)        ## 1-byte Spill
	jl	LBB12_8
## BB#7:
	movq	-1656(%rbp), %rax
	movl	4(%rax), %ecx
	movq	-1664(%rbp), %rax
	cmpl	4(%rax), %ecx
	setl	%dl
	movb	%dl, -1769(%rbp)        ## 1-byte Spill
LBB12_8:
	movb	-1769(%rbp), %al        ## 1-byte Reload
	movb	%al, -1768(%rbp)        ## 1-byte Spill
LBB12_9:                                ## %_ZNSt3__1ltIiiEEbRKNS_4pairIT_T0_EES6_.exit1.i.i
	movb	-1768(%rbp), %al        ## 1-byte Reload
	xorl	%ecx, %ecx
	movb	%cl, %dl
	testb	$1, %al
	movb	%dl, -1770(%rbp)        ## 1-byte Spill
	jne	LBB12_11
## BB#10:
	movq	-1688(%rbp), %rax
	movl	8(%rax), %ecx
	movq	-1696(%rbp), %rax
	cmpl	8(%rax), %ecx
	setl	%dl
	movb	%dl, -1770(%rbp)        ## 1-byte Spill
LBB12_11:
	movb	-1770(%rbp), %al        ## 1-byte Reload
	movb	%al, -1767(%rbp)        ## 1-byte Spill
LBB12_12:                               ## %_ZNKSt3__16__lessINS_4pairINS1_IiiEEiEES3_EclERKS3_S6_.exit
	movb	-1767(%rbp), %al        ## 1-byte Reload
	testb	$1, %al
	jne	LBB12_42
## BB#13:
	movb	$1, %al
	movq	-1760(%rbp), %rcx
	movq	-1752(%rbp), %rdx
	movq	-1744(%rbp), %rsi
	movq	%rcx, -56(%rbp)
	movq	%rdx, -64(%rbp)
	movq	%rsi, -72(%rbp)
	movq	-64(%rbp), %rcx
	movq	-72(%rbp), %rdx
	movq	%rcx, -40(%rbp)
	movq	%rdx, -48(%rbp)
	movq	-40(%rbp), %rcx
	movq	-48(%rbp), %rdx
	movq	%rcx, -24(%rbp)
	movq	%rdx, -32(%rbp)
	movq	-24(%rbp), %rcx
	movl	(%rcx), %edi
	movq	-32(%rbp), %rcx
	cmpl	(%rcx), %edi
	movb	%al, -1771(%rbp)        ## 1-byte Spill
	jl	LBB12_17
## BB#14:
	xorl	%eax, %eax
	movb	%al, %cl
	movq	-32(%rbp), %rdx
	movl	(%rdx), %eax
	movq	-24(%rbp), %rdx
	cmpl	(%rdx), %eax
	movb	%cl, -1772(%rbp)        ## 1-byte Spill
	jl	LBB12_16
## BB#15:
	movq	-24(%rbp), %rax
	movl	4(%rax), %ecx
	movq	-32(%rbp), %rax
	cmpl	4(%rax), %ecx
	setl	%dl
	movb	%dl, -1772(%rbp)        ## 1-byte Spill
LBB12_16:
	movb	-1772(%rbp), %al        ## 1-byte Reload
	movb	%al, -1771(%rbp)        ## 1-byte Spill
LBB12_17:                               ## %_ZNSt3__1ltIiiEEbRKNS_4pairIT_T0_EES6_.exit.i.i.22
	movb	-1771(%rbp), %al        ## 1-byte Reload
	movb	$1, %cl
	testb	$1, %al
	movb	%cl, -1773(%rbp)        ## 1-byte Spill
	jne	LBB12_25
## BB#18:
	movb	$1, %al
	movq	-48(%rbp), %rcx
	movq	-40(%rbp), %rdx
	movq	%rcx, -8(%rbp)
	movq	%rdx, -16(%rbp)
	movq	-8(%rbp), %rcx
	movl	(%rcx), %esi
	movq	-16(%rbp), %rcx
	cmpl	(%rcx), %esi
	movb	%al, -1774(%rbp)        ## 1-byte Spill
	jl	LBB12_22
## BB#19:
	xorl	%eax, %eax
	movb	%al, %cl
	movq	-16(%rbp), %rdx
	movl	(%rdx), %eax
	movq	-8(%rbp), %rdx
	cmpl	(%rdx), %eax
	movb	%cl, -1775(%rbp)        ## 1-byte Spill
	jl	LBB12_21
## BB#20:
	movq	-8(%rbp), %rax
	movl	4(%rax), %ecx
	movq	-16(%rbp), %rax
	cmpl	4(%rax), %ecx
	setl	%dl
	movb	%dl, -1775(%rbp)        ## 1-byte Spill
LBB12_21:
	movb	-1775(%rbp), %al        ## 1-byte Reload
	movb	%al, -1774(%rbp)        ## 1-byte Spill
LBB12_22:                               ## %_ZNSt3__1ltIiiEEbRKNS_4pairIT_T0_EES6_.exit1.i.i.23
	movb	-1774(%rbp), %al        ## 1-byte Reload
	xorl	%ecx, %ecx
	movb	%cl, %dl
	testb	$1, %al
	movb	%dl, -1776(%rbp)        ## 1-byte Spill
	jne	LBB12_24
## BB#23:
	movq	-40(%rbp), %rax
	movl	8(%rax), %ecx
	movq	-48(%rbp), %rax
	cmpl	8(%rax), %ecx
	setl	%dl
	movb	%dl, -1776(%rbp)        ## 1-byte Spill
LBB12_24:
	movb	-1776(%rbp), %al        ## 1-byte Reload
	movb	%al, -1773(%rbp)        ## 1-byte Spill
LBB12_25:                               ## %_ZNKSt3__16__lessINS_4pairINS1_IiiEEiEES3_EclERKS3_S6_.exit24
	movb	-1773(%rbp), %al        ## 1-byte Reload
	testb	$1, %al
	jne	LBB12_27
## BB#26:
	movl	-1764(%rbp), %eax
	movl	%eax, -1724(%rbp)
	jmp	LBB12_71
LBB12_27:
	movb	$1, %al
	leaq	-116(%rbp), %rcx
	leaq	-180(%rbp), %rdx
	leaq	-244(%rbp), %rsi
	movq	-1744(%rbp), %rdi
	movq	-1752(%rbp), %r8
	movq	%rdi, -336(%rbp)
	movq	%r8, -344(%rbp)
	movq	-336(%rbp), %rdi
	movq	-344(%rbp), %r8
	movq	%rdi, -320(%rbp)
	movq	%r8, -328(%rbp)
	movq	-320(%rbp), %rdi
	movq	-328(%rbp), %r8
	movq	%rdi, -304(%rbp)
	movq	%r8, -312(%rbp)
	movq	-304(%rbp), %r8
	movq	-312(%rbp), %r9
	movq	%r8, -288(%rbp)
	movq	%r9, -296(%rbp)
	movq	-288(%rbp), %r8
	movq	-296(%rbp), %r9
	movq	%r8, -272(%rbp)
	movq	%r9, -280(%rbp)
	movq	-272(%rbp), %r8
	movq	-280(%rbp), %r9
	movq	%r8, -256(%rbp)
	movq	%r9, -264(%rbp)
	movq	-256(%rbp), %r9
	movq	-264(%rbp), %r10
	movq	%r9, -232(%rbp)
	movq	%r10, -240(%rbp)
	movq	-232(%rbp), %r9
	movq	%r9, -224(%rbp)
	movq	-224(%rbp), %r9
	movl	(%r9), %r11d
	movl	%r11d, -244(%rbp)
	movq	-240(%rbp), %r9
	movq	%r9, -208(%rbp)
	movq	-208(%rbp), %r9
	movl	(%r9), %r11d
	movq	-232(%rbp), %r9
	movl	%r11d, (%r9)
	movq	%rsi, -216(%rbp)
	movq	-216(%rbp), %rsi
	movl	(%rsi), %r11d
	movq	-240(%rbp), %rsi
	movl	%r11d, (%rsi)
	addq	$4, %r8
	movq	-280(%rbp), %rsi
	addq	$4, %rsi
	movq	%r8, -192(%rbp)
	movq	%rsi, -200(%rbp)
	movq	-192(%rbp), %rsi
	movq	-200(%rbp), %r8
	movq	%rsi, -168(%rbp)
	movq	%r8, -176(%rbp)
	movq	-168(%rbp), %rsi
	movq	%rsi, -160(%rbp)
	movq	-160(%rbp), %rsi
	movl	(%rsi), %r11d
	movl	%r11d, -180(%rbp)
	movq	-176(%rbp), %rsi
	movq	%rsi, -144(%rbp)
	movq	-144(%rbp), %rsi
	movl	(%rsi), %r11d
	movq	-168(%rbp), %rsi
	movl	%r11d, (%rsi)
	movq	%rdx, -152(%rbp)
	movq	-152(%rbp), %rdx
	movl	(%rdx), %r11d
	movq	-176(%rbp), %rdx
	movl	%r11d, (%rdx)
	addq	$8, %rdi
	movq	-328(%rbp), %rdx
	addq	$8, %rdx
	movq	%rdi, -128(%rbp)
	movq	%rdx, -136(%rbp)
	movq	-128(%rbp), %rdx
	movq	-136(%rbp), %rsi
	movq	%rdx, -104(%rbp)
	movq	%rsi, -112(%rbp)
	movq	-104(%rbp), %rdx
	movq	%rdx, -96(%rbp)
	movq	-96(%rbp), %rdx
	movl	(%rdx), %r11d
	movl	%r11d, -116(%rbp)
	movq	-112(%rbp), %rdx
	movq	%rdx, -80(%rbp)
	movq	-80(%rbp), %rdx
	movl	(%rdx), %r11d
	movq	-104(%rbp), %rdx
	movl	%r11d, (%rdx)
	movq	%rcx, -88(%rbp)
	movq	-88(%rbp), %rcx
	movl	(%rcx), %r11d
	movq	-112(%rbp), %rcx
	movl	%r11d, (%rcx)
	movl	$1, -1764(%rbp)
	movq	-1760(%rbp), %rcx
	movq	-1744(%rbp), %rdx
	movq	-1736(%rbp), %rsi
	movq	%rcx, -400(%rbp)
	movq	%rdx, -408(%rbp)
	movq	%rsi, -416(%rbp)
	movq	-408(%rbp), %rcx
	movq	-416(%rbp), %rdx
	movq	%rcx, -384(%rbp)
	movq	%rdx, -392(%rbp)
	movq	-384(%rbp), %rcx
	movq	-392(%rbp), %rdx
	movq	%rcx, -368(%rbp)
	movq	%rdx, -376(%rbp)
	movq	-368(%rbp), %rcx
	movl	(%rcx), %r11d
	movq	-376(%rbp), %rcx
	cmpl	(%rcx), %r11d
	movb	%al, -1777(%rbp)        ## 1-byte Spill
	jl	LBB12_31
## BB#28:
	xorl	%eax, %eax
	movb	%al, %cl
	movq	-376(%rbp), %rdx
	movl	(%rdx), %eax
	movq	-368(%rbp), %rdx
	cmpl	(%rdx), %eax
	movb	%cl, -1778(%rbp)        ## 1-byte Spill
	jl	LBB12_30
## BB#29:
	movq	-368(%rbp), %rax
	movl	4(%rax), %ecx
	movq	-376(%rbp), %rax
	cmpl	4(%rax), %ecx
	setl	%dl
	movb	%dl, -1778(%rbp)        ## 1-byte Spill
LBB12_30:
	movb	-1778(%rbp), %al        ## 1-byte Reload
	movb	%al, -1777(%rbp)        ## 1-byte Spill
LBB12_31:                               ## %_ZNSt3__1ltIiiEEbRKNS_4pairIT_T0_EES6_.exit.i.i.16
	movb	-1777(%rbp), %al        ## 1-byte Reload
	movb	$1, %cl
	testb	$1, %al
	movb	%cl, -1779(%rbp)        ## 1-byte Spill
	jne	LBB12_39
## BB#32:
	movb	$1, %al
	movq	-392(%rbp), %rcx
	movq	-384(%rbp), %rdx
	movq	%rcx, -352(%rbp)
	movq	%rdx, -360(%rbp)
	movq	-352(%rbp), %rcx
	movl	(%rcx), %esi
	movq	-360(%rbp), %rcx
	cmpl	(%rcx), %esi
	movb	%al, -1780(%rbp)        ## 1-byte Spill
	jl	LBB12_36
## BB#33:
	xorl	%eax, %eax
	movb	%al, %cl
	movq	-360(%rbp), %rdx
	movl	(%rdx), %eax
	movq	-352(%rbp), %rdx
	cmpl	(%rdx), %eax
	movb	%cl, -1781(%rbp)        ## 1-byte Spill
	jl	LBB12_35
## BB#34:
	movq	-352(%rbp), %rax
	movl	4(%rax), %ecx
	movq	-360(%rbp), %rax
	cmpl	4(%rax), %ecx
	setl	%dl
	movb	%dl, -1781(%rbp)        ## 1-byte Spill
LBB12_35:
	movb	-1781(%rbp), %al        ## 1-byte Reload
	movb	%al, -1780(%rbp)        ## 1-byte Spill
LBB12_36:                               ## %_ZNSt3__1ltIiiEEbRKNS_4pairIT_T0_EES6_.exit1.i.i.17
	movb	-1780(%rbp), %al        ## 1-byte Reload
	xorl	%ecx, %ecx
	movb	%cl, %dl
	testb	$1, %al
	movb	%dl, -1782(%rbp)        ## 1-byte Spill
	jne	LBB12_38
## BB#37:
	movq	-384(%rbp), %rax
	movl	8(%rax), %ecx
	movq	-392(%rbp), %rax
	cmpl	8(%rax), %ecx
	setl	%dl
	movb	%dl, -1782(%rbp)        ## 1-byte Spill
LBB12_38:
	movb	-1782(%rbp), %al        ## 1-byte Reload
	movb	%al, -1779(%rbp)        ## 1-byte Spill
LBB12_39:                               ## %_ZNKSt3__16__lessINS_4pairINS1_IiiEEiEES3_EclERKS3_S6_.exit18
	movb	-1779(%rbp), %al        ## 1-byte Reload
	testb	$1, %al
	jne	LBB12_40
	jmp	LBB12_41
LBB12_40:
	leaq	-460(%rbp), %rax
	leaq	-524(%rbp), %rcx
	leaq	-588(%rbp), %rdx
	movq	-1736(%rbp), %rsi
	movq	-1744(%rbp), %rdi
	movq	%rsi, -680(%rbp)
	movq	%rdi, -688(%rbp)
	movq	-680(%rbp), %rsi
	movq	-688(%rbp), %rdi
	movq	%rsi, -664(%rbp)
	movq	%rdi, -672(%rbp)
	movq	-664(%rbp), %rsi
	movq	-672(%rbp), %rdi
	movq	%rsi, -648(%rbp)
	movq	%rdi, -656(%rbp)
	movq	-648(%rbp), %rdi
	movq	-656(%rbp), %r8
	movq	%rdi, -632(%rbp)
	movq	%r8, -640(%rbp)
	movq	-632(%rbp), %rdi
	movq	-640(%rbp), %r8
	movq	%rdi, -616(%rbp)
	movq	%r8, -624(%rbp)
	movq	-616(%rbp), %rdi
	movq	-624(%rbp), %r8
	movq	%rdi, -600(%rbp)
	movq	%r8, -608(%rbp)
	movq	-600(%rbp), %r8
	movq	-608(%rbp), %r9
	movq	%r8, -576(%rbp)
	movq	%r9, -584(%rbp)
	movq	-576(%rbp), %r8
	movq	%r8, -568(%rbp)
	movq	-568(%rbp), %r8
	movl	(%r8), %r10d
	movl	%r10d, -588(%rbp)
	movq	-584(%rbp), %r8
	movq	%r8, -552(%rbp)
	movq	-552(%rbp), %r8
	movl	(%r8), %r10d
	movq	-576(%rbp), %r8
	movl	%r10d, (%r8)
	movq	%rdx, -560(%rbp)
	movq	-560(%rbp), %rdx
	movl	(%rdx), %r10d
	movq	-584(%rbp), %rdx
	movl	%r10d, (%rdx)
	addq	$4, %rdi
	movq	-624(%rbp), %rdx
	addq	$4, %rdx
	movq	%rdi, -536(%rbp)
	movq	%rdx, -544(%rbp)
	movq	-536(%rbp), %rdx
	movq	-544(%rbp), %rdi
	movq	%rdx, -512(%rbp)
	movq	%rdi, -520(%rbp)
	movq	-512(%rbp), %rdx
	movq	%rdx, -504(%rbp)
	movq	-504(%rbp), %rdx
	movl	(%rdx), %r10d
	movl	%r10d, -524(%rbp)
	movq	-520(%rbp), %rdx
	movq	%rdx, -488(%rbp)
	movq	-488(%rbp), %rdx
	movl	(%rdx), %r10d
	movq	-512(%rbp), %rdx
	movl	%r10d, (%rdx)
	movq	%rcx, -496(%rbp)
	movq	-496(%rbp), %rcx
	movl	(%rcx), %r10d
	movq	-520(%rbp), %rcx
	movl	%r10d, (%rcx)
	addq	$8, %rsi
	movq	-672(%rbp), %rcx
	addq	$8, %rcx
	movq	%rsi, -472(%rbp)
	movq	%rcx, -480(%rbp)
	movq	-472(%rbp), %rcx
	movq	-480(%rbp), %rdx
	movq	%rcx, -448(%rbp)
	movq	%rdx, -456(%rbp)
	movq	-448(%rbp), %rcx
	movq	%rcx, -440(%rbp)
	movq	-440(%rbp), %rcx
	movl	(%rcx), %r10d
	movl	%r10d, -460(%rbp)
	movq	-456(%rbp), %rcx
	movq	%rcx, -424(%rbp)
	movq	-424(%rbp), %rcx
	movl	(%rcx), %r10d
	movq	-448(%rbp), %rcx
	movl	%r10d, (%rcx)
	movq	%rax, -432(%rbp)
	movq	-432(%rbp), %rax
	movl	(%rax), %r10d
	movq	-456(%rbp), %rax
	movl	%r10d, (%rax)
	movl	$2, -1764(%rbp)
LBB12_41:
	movl	-1764(%rbp), %eax
	movl	%eax, -1724(%rbp)
	jmp	LBB12_71
LBB12_42:
	movb	$1, %al
	movq	-1760(%rbp), %rcx
	movq	-1752(%rbp), %rdx
	movq	-1744(%rbp), %rsi
	movq	%rcx, -744(%rbp)
	movq	%rdx, -752(%rbp)
	movq	%rsi, -760(%rbp)
	movq	-752(%rbp), %rcx
	movq	-760(%rbp), %rdx
	movq	%rcx, -728(%rbp)
	movq	%rdx, -736(%rbp)
	movq	-728(%rbp), %rcx
	movq	-736(%rbp), %rdx
	movq	%rcx, -712(%rbp)
	movq	%rdx, -720(%rbp)
	movq	-712(%rbp), %rcx
	movl	(%rcx), %edi
	movq	-720(%rbp), %rcx
	cmpl	(%rcx), %edi
	movb	%al, -1783(%rbp)        ## 1-byte Spill
	jl	LBB12_46
## BB#43:
	xorl	%eax, %eax
	movb	%al, %cl
	movq	-720(%rbp), %rdx
	movl	(%rdx), %eax
	movq	-712(%rbp), %rdx
	cmpl	(%rdx), %eax
	movb	%cl, -1784(%rbp)        ## 1-byte Spill
	jl	LBB12_45
## BB#44:
	movq	-712(%rbp), %rax
	movl	4(%rax), %ecx
	movq	-720(%rbp), %rax
	cmpl	4(%rax), %ecx
	setl	%dl
	movb	%dl, -1784(%rbp)        ## 1-byte Spill
LBB12_45:
	movb	-1784(%rbp), %al        ## 1-byte Reload
	movb	%al, -1783(%rbp)        ## 1-byte Spill
LBB12_46:                               ## %_ZNSt3__1ltIiiEEbRKNS_4pairIT_T0_EES6_.exit.i.i.10
	movb	-1783(%rbp), %al        ## 1-byte Reload
	movb	$1, %cl
	testb	$1, %al
	movb	%cl, -1785(%rbp)        ## 1-byte Spill
	jne	LBB12_54
## BB#47:
	movb	$1, %al
	movq	-736(%rbp), %rcx
	movq	-728(%rbp), %rdx
	movq	%rcx, -696(%rbp)
	movq	%rdx, -704(%rbp)
	movq	-696(%rbp), %rcx
	movl	(%rcx), %esi
	movq	-704(%rbp), %rcx
	cmpl	(%rcx), %esi
	movb	%al, -1786(%rbp)        ## 1-byte Spill
	jl	LBB12_51
## BB#48:
	xorl	%eax, %eax
	movb	%al, %cl
	movq	-704(%rbp), %rdx
	movl	(%rdx), %eax
	movq	-696(%rbp), %rdx
	cmpl	(%rdx), %eax
	movb	%cl, -1787(%rbp)        ## 1-byte Spill
	jl	LBB12_50
## BB#49:
	movq	-696(%rbp), %rax
	movl	4(%rax), %ecx
	movq	-704(%rbp), %rax
	cmpl	4(%rax), %ecx
	setl	%dl
	movb	%dl, -1787(%rbp)        ## 1-byte Spill
LBB12_50:
	movb	-1787(%rbp), %al        ## 1-byte Reload
	movb	%al, -1786(%rbp)        ## 1-byte Spill
LBB12_51:                               ## %_ZNSt3__1ltIiiEEbRKNS_4pairIT_T0_EES6_.exit1.i.i.11
	movb	-1786(%rbp), %al        ## 1-byte Reload
	xorl	%ecx, %ecx
	movb	%cl, %dl
	testb	$1, %al
	movb	%dl, -1788(%rbp)        ## 1-byte Spill
	jne	LBB12_53
## BB#52:
	movq	-728(%rbp), %rax
	movl	8(%rax), %ecx
	movq	-736(%rbp), %rax
	cmpl	8(%rax), %ecx
	setl	%dl
	movb	%dl, -1788(%rbp)        ## 1-byte Spill
LBB12_53:
	movb	-1788(%rbp), %al        ## 1-byte Reload
	movb	%al, -1785(%rbp)        ## 1-byte Spill
LBB12_54:                               ## %_ZNKSt3__16__lessINS_4pairINS1_IiiEEiEES3_EclERKS3_S6_.exit12
	movb	-1785(%rbp), %al        ## 1-byte Reload
	testb	$1, %al
	jne	LBB12_55
	jmp	LBB12_56
LBB12_55:
	leaq	-804(%rbp), %rax
	leaq	-868(%rbp), %rcx
	leaq	-932(%rbp), %rdx
	movq	-1736(%rbp), %rsi
	movq	-1752(%rbp), %rdi
	movq	%rsi, -1024(%rbp)
	movq	%rdi, -1032(%rbp)
	movq	-1024(%rbp), %rsi
	movq	-1032(%rbp), %rdi
	movq	%rsi, -1008(%rbp)
	movq	%rdi, -1016(%rbp)
	movq	-1008(%rbp), %rsi
	movq	-1016(%rbp), %rdi
	movq	%rsi, -992(%rbp)
	movq	%rdi, -1000(%rbp)
	movq	-992(%rbp), %rdi
	movq	-1000(%rbp), %r8
	movq	%rdi, -976(%rbp)
	movq	%r8, -984(%rbp)
	movq	-976(%rbp), %rdi
	movq	-984(%rbp), %r8
	movq	%rdi, -960(%rbp)
	movq	%r8, -968(%rbp)
	movq	-960(%rbp), %rdi
	movq	-968(%rbp), %r8
	movq	%rdi, -944(%rbp)
	movq	%r8, -952(%rbp)
	movq	-944(%rbp), %r8
	movq	-952(%rbp), %r9
	movq	%r8, -920(%rbp)
	movq	%r9, -928(%rbp)
	movq	-920(%rbp), %r8
	movq	%r8, -912(%rbp)
	movq	-912(%rbp), %r8
	movl	(%r8), %r10d
	movl	%r10d, -932(%rbp)
	movq	-928(%rbp), %r8
	movq	%r8, -896(%rbp)
	movq	-896(%rbp), %r8
	movl	(%r8), %r10d
	movq	-920(%rbp), %r8
	movl	%r10d, (%r8)
	movq	%rdx, -904(%rbp)
	movq	-904(%rbp), %rdx
	movl	(%rdx), %r10d
	movq	-928(%rbp), %rdx
	movl	%r10d, (%rdx)
	addq	$4, %rdi
	movq	-968(%rbp), %rdx
	addq	$4, %rdx
	movq	%rdi, -880(%rbp)
	movq	%rdx, -888(%rbp)
	movq	-880(%rbp), %rdx
	movq	-888(%rbp), %rdi
	movq	%rdx, -856(%rbp)
	movq	%rdi, -864(%rbp)
	movq	-856(%rbp), %rdx
	movq	%rdx, -848(%rbp)
	movq	-848(%rbp), %rdx
	movl	(%rdx), %r10d
	movl	%r10d, -868(%rbp)
	movq	-864(%rbp), %rdx
	movq	%rdx, -832(%rbp)
	movq	-832(%rbp), %rdx
	movl	(%rdx), %r10d
	movq	-856(%rbp), %rdx
	movl	%r10d, (%rdx)
	movq	%rcx, -840(%rbp)
	movq	-840(%rbp), %rcx
	movl	(%rcx), %r10d
	movq	-864(%rbp), %rcx
	movl	%r10d, (%rcx)
	addq	$8, %rsi
	movq	-1016(%rbp), %rcx
	addq	$8, %rcx
	movq	%rsi, -816(%rbp)
	movq	%rcx, -824(%rbp)
	movq	-816(%rbp), %rcx
	movq	-824(%rbp), %rdx
	movq	%rcx, -792(%rbp)
	movq	%rdx, -800(%rbp)
	movq	-792(%rbp), %rcx
	movq	%rcx, -784(%rbp)
	movq	-784(%rbp), %rcx
	movl	(%rcx), %r10d
	movl	%r10d, -804(%rbp)
	movq	-800(%rbp), %rcx
	movq	%rcx, -768(%rbp)
	movq	-768(%rbp), %rcx
	movl	(%rcx), %r10d
	movq	-792(%rbp), %rcx
	movl	%r10d, (%rcx)
	movq	%rax, -776(%rbp)
	movq	-776(%rbp), %rax
	movl	(%rax), %r10d
	movq	-800(%rbp), %rax
	movl	%r10d, (%rax)
	movl	$1, -1764(%rbp)
	movl	-1764(%rbp), %r10d
	movl	%r10d, -1724(%rbp)
	jmp	LBB12_71
LBB12_56:
	movb	$1, %al
	leaq	-1076(%rbp), %rcx
	leaq	-1140(%rbp), %rdx
	leaq	-1204(%rbp), %rsi
	movq	-1736(%rbp), %rdi
	movq	-1744(%rbp), %r8
	movq	%rdi, -1296(%rbp)
	movq	%r8, -1304(%rbp)
	movq	-1296(%rbp), %rdi
	movq	-1304(%rbp), %r8
	movq	%rdi, -1280(%rbp)
	movq	%r8, -1288(%rbp)
	movq	-1280(%rbp), %rdi
	movq	-1288(%rbp), %r8
	movq	%rdi, -1264(%rbp)
	movq	%r8, -1272(%rbp)
	movq	-1264(%rbp), %r8
	movq	-1272(%rbp), %r9
	movq	%r8, -1248(%rbp)
	movq	%r9, -1256(%rbp)
	movq	-1248(%rbp), %r8
	movq	-1256(%rbp), %r9
	movq	%r8, -1232(%rbp)
	movq	%r9, -1240(%rbp)
	movq	-1232(%rbp), %r8
	movq	-1240(%rbp), %r9
	movq	%r8, -1216(%rbp)
	movq	%r9, -1224(%rbp)
	movq	-1216(%rbp), %r9
	movq	-1224(%rbp), %r10
	movq	%r9, -1192(%rbp)
	movq	%r10, -1200(%rbp)
	movq	-1192(%rbp), %r9
	movq	%r9, -1184(%rbp)
	movq	-1184(%rbp), %r9
	movl	(%r9), %r11d
	movl	%r11d, -1204(%rbp)
	movq	-1200(%rbp), %r9
	movq	%r9, -1168(%rbp)
	movq	-1168(%rbp), %r9
	movl	(%r9), %r11d
	movq	-1192(%rbp), %r9
	movl	%r11d, (%r9)
	movq	%rsi, -1176(%rbp)
	movq	-1176(%rbp), %rsi
	movl	(%rsi), %r11d
	movq	-1200(%rbp), %rsi
	movl	%r11d, (%rsi)
	addq	$4, %r8
	movq	-1240(%rbp), %rsi
	addq	$4, %rsi
	movq	%r8, -1152(%rbp)
	movq	%rsi, -1160(%rbp)
	movq	-1152(%rbp), %rsi
	movq	-1160(%rbp), %r8
	movq	%rsi, -1128(%rbp)
	movq	%r8, -1136(%rbp)
	movq	-1128(%rbp), %rsi
	movq	%rsi, -1120(%rbp)
	movq	-1120(%rbp), %rsi
	movl	(%rsi), %r11d
	movl	%r11d, -1140(%rbp)
	movq	-1136(%rbp), %rsi
	movq	%rsi, -1104(%rbp)
	movq	-1104(%rbp), %rsi
	movl	(%rsi), %r11d
	movq	-1128(%rbp), %rsi
	movl	%r11d, (%rsi)
	movq	%rdx, -1112(%rbp)
	movq	-1112(%rbp), %rdx
	movl	(%rdx), %r11d
	movq	-1136(%rbp), %rdx
	movl	%r11d, (%rdx)
	addq	$8, %rdi
	movq	-1288(%rbp), %rdx
	addq	$8, %rdx
	movq	%rdi, -1088(%rbp)
	movq	%rdx, -1096(%rbp)
	movq	-1088(%rbp), %rdx
	movq	-1096(%rbp), %rsi
	movq	%rdx, -1064(%rbp)
	movq	%rsi, -1072(%rbp)
	movq	-1064(%rbp), %rdx
	movq	%rdx, -1056(%rbp)
	movq	-1056(%rbp), %rdx
	movl	(%rdx), %r11d
	movl	%r11d, -1076(%rbp)
	movq	-1072(%rbp), %rdx
	movq	%rdx, -1040(%rbp)
	movq	-1040(%rbp), %rdx
	movl	(%rdx), %r11d
	movq	-1064(%rbp), %rdx
	movl	%r11d, (%rdx)
	movq	%rcx, -1048(%rbp)
	movq	-1048(%rbp), %rcx
	movl	(%rcx), %r11d
	movq	-1072(%rbp), %rcx
	movl	%r11d, (%rcx)
	movl	$1, -1764(%rbp)
	movq	-1760(%rbp), %rcx
	movq	-1752(%rbp), %rdx
	movq	-1744(%rbp), %rsi
	movq	%rcx, -1360(%rbp)
	movq	%rdx, -1368(%rbp)
	movq	%rsi, -1376(%rbp)
	movq	-1368(%rbp), %rcx
	movq	-1376(%rbp), %rdx
	movq	%rcx, -1344(%rbp)
	movq	%rdx, -1352(%rbp)
	movq	-1344(%rbp), %rcx
	movq	-1352(%rbp), %rdx
	movq	%rcx, -1328(%rbp)
	movq	%rdx, -1336(%rbp)
	movq	-1328(%rbp), %rcx
	movl	(%rcx), %r11d
	movq	-1336(%rbp), %rcx
	cmpl	(%rcx), %r11d
	movb	%al, -1789(%rbp)        ## 1-byte Spill
	jl	LBB12_60
## BB#57:
	xorl	%eax, %eax
	movb	%al, %cl
	movq	-1336(%rbp), %rdx
	movl	(%rdx), %eax
	movq	-1328(%rbp), %rdx
	cmpl	(%rdx), %eax
	movb	%cl, -1790(%rbp)        ## 1-byte Spill
	jl	LBB12_59
## BB#58:
	movq	-1328(%rbp), %rax
	movl	4(%rax), %ecx
	movq	-1336(%rbp), %rax
	cmpl	4(%rax), %ecx
	setl	%dl
	movb	%dl, -1790(%rbp)        ## 1-byte Spill
LBB12_59:
	movb	-1790(%rbp), %al        ## 1-byte Reload
	movb	%al, -1789(%rbp)        ## 1-byte Spill
LBB12_60:                               ## %_ZNSt3__1ltIiiEEbRKNS_4pairIT_T0_EES6_.exit.i.i.1
	movb	-1789(%rbp), %al        ## 1-byte Reload
	movb	$1, %cl
	testb	$1, %al
	movb	%cl, -1791(%rbp)        ## 1-byte Spill
	jne	LBB12_68
## BB#61:
	movb	$1, %al
	movq	-1352(%rbp), %rcx
	movq	-1344(%rbp), %rdx
	movq	%rcx, -1312(%rbp)
	movq	%rdx, -1320(%rbp)
	movq	-1312(%rbp), %rcx
	movl	(%rcx), %esi
	movq	-1320(%rbp), %rcx
	cmpl	(%rcx), %esi
	movb	%al, -1792(%rbp)        ## 1-byte Spill
	jl	LBB12_65
## BB#62:
	xorl	%eax, %eax
	movb	%al, %cl
	movq	-1320(%rbp), %rdx
	movl	(%rdx), %eax
	movq	-1312(%rbp), %rdx
	cmpl	(%rdx), %eax
	movb	%cl, -1793(%rbp)        ## 1-byte Spill
	jl	LBB12_64
## BB#63:
	movq	-1312(%rbp), %rax
	movl	4(%rax), %ecx
	movq	-1320(%rbp), %rax
	cmpl	4(%rax), %ecx
	setl	%dl
	movb	%dl, -1793(%rbp)        ## 1-byte Spill
LBB12_64:
	movb	-1793(%rbp), %al        ## 1-byte Reload
	movb	%al, -1792(%rbp)        ## 1-byte Spill
LBB12_65:                               ## %_ZNSt3__1ltIiiEEbRKNS_4pairIT_T0_EES6_.exit1.i.i.2
	movb	-1792(%rbp), %al        ## 1-byte Reload
	xorl	%ecx, %ecx
	movb	%cl, %dl
	testb	$1, %al
	movb	%dl, -1794(%rbp)        ## 1-byte Spill
	jne	LBB12_67
## BB#66:
	movq	-1344(%rbp), %rax
	movl	8(%rax), %ecx
	movq	-1352(%rbp), %rax
	cmpl	8(%rax), %ecx
	setl	%dl
	movb	%dl, -1794(%rbp)        ## 1-byte Spill
LBB12_67:
	movb	-1794(%rbp), %al        ## 1-byte Reload
	movb	%al, -1791(%rbp)        ## 1-byte Spill
LBB12_68:                               ## %_ZNKSt3__16__lessINS_4pairINS1_IiiEEiEES3_EclERKS3_S6_.exit3
	movb	-1791(%rbp), %al        ## 1-byte Reload
	testb	$1, %al
	jne	LBB12_69
	jmp	LBB12_70
LBB12_69:
	leaq	-1420(%rbp), %rax
	leaq	-1484(%rbp), %rcx
	leaq	-1548(%rbp), %rdx
	movq	-1744(%rbp), %rsi
	movq	-1752(%rbp), %rdi
	movq	%rsi, -1640(%rbp)
	movq	%rdi, -1648(%rbp)
	movq	-1640(%rbp), %rsi
	movq	-1648(%rbp), %rdi
	movq	%rsi, -1624(%rbp)
	movq	%rdi, -1632(%rbp)
	movq	-1624(%rbp), %rsi
	movq	-1632(%rbp), %rdi
	movq	%rsi, -1608(%rbp)
	movq	%rdi, -1616(%rbp)
	movq	-1608(%rbp), %rdi
	movq	-1616(%rbp), %r8
	movq	%rdi, -1592(%rbp)
	movq	%r8, -1600(%rbp)
	movq	-1592(%rbp), %rdi
	movq	-1600(%rbp), %r8
	movq	%rdi, -1576(%rbp)
	movq	%r8, -1584(%rbp)
	movq	-1576(%rbp), %rdi
	movq	-1584(%rbp), %r8
	movq	%rdi, -1560(%rbp)
	movq	%r8, -1568(%rbp)
	movq	-1560(%rbp), %r8
	movq	-1568(%rbp), %r9
	movq	%r8, -1536(%rbp)
	movq	%r9, -1544(%rbp)
	movq	-1536(%rbp), %r8
	movq	%r8, -1528(%rbp)
	movq	-1528(%rbp), %r8
	movl	(%r8), %r10d
	movl	%r10d, -1548(%rbp)
	movq	-1544(%rbp), %r8
	movq	%r8, -1512(%rbp)
	movq	-1512(%rbp), %r8
	movl	(%r8), %r10d
	movq	-1536(%rbp), %r8
	movl	%r10d, (%r8)
	movq	%rdx, -1520(%rbp)
	movq	-1520(%rbp), %rdx
	movl	(%rdx), %r10d
	movq	-1544(%rbp), %rdx
	movl	%r10d, (%rdx)
	addq	$4, %rdi
	movq	-1584(%rbp), %rdx
	addq	$4, %rdx
	movq	%rdi, -1496(%rbp)
	movq	%rdx, -1504(%rbp)
	movq	-1496(%rbp), %rdx
	movq	-1504(%rbp), %rdi
	movq	%rdx, -1472(%rbp)
	movq	%rdi, -1480(%rbp)
	movq	-1472(%rbp), %rdx
	movq	%rdx, -1464(%rbp)
	movq	-1464(%rbp), %rdx
	movl	(%rdx), %r10d
	movl	%r10d, -1484(%rbp)
	movq	-1480(%rbp), %rdx
	movq	%rdx, -1448(%rbp)
	movq	-1448(%rbp), %rdx
	movl	(%rdx), %r10d
	movq	-1472(%rbp), %rdx
	movl	%r10d, (%rdx)
	movq	%rcx, -1456(%rbp)
	movq	-1456(%rbp), %rcx
	movl	(%rcx), %r10d
	movq	-1480(%rbp), %rcx
	movl	%r10d, (%rcx)
	addq	$8, %rsi
	movq	-1632(%rbp), %rcx
	addq	$8, %rcx
	movq	%rsi, -1432(%rbp)
	movq	%rcx, -1440(%rbp)
	movq	-1432(%rbp), %rcx
	movq	-1440(%rbp), %rdx
	movq	%rcx, -1408(%rbp)
	movq	%rdx, -1416(%rbp)
	movq	-1408(%rbp), %rcx
	movq	%rcx, -1400(%rbp)
	movq	-1400(%rbp), %rcx
	movl	(%rcx), %r10d
	movl	%r10d, -1420(%rbp)
	movq	-1416(%rbp), %rcx
	movq	%rcx, -1384(%rbp)
	movq	-1384(%rbp), %rcx
	movl	(%rcx), %r10d
	movq	-1408(%rbp), %rcx
	movl	%r10d, (%rcx)
	movq	%rax, -1392(%rbp)
	movq	-1392(%rbp), %rax
	movl	(%rax), %r10d
	movq	-1416(%rbp), %rax
	movl	%r10d, (%rax)
	movl	$2, -1764(%rbp)
LBB12_70:
	movl	-1764(%rbp), %eax
	movl	%eax, -1724(%rbp)
LBB12_71:
	movl	-1724(%rbp), %eax
	addq	$1672, %rsp             ## imm = 0x688
	popq	%rbp
	retq
	.cfi_endproc

	.globl	__ZNSt3__17__sort4IRNS_6__lessINS_4pairINS2_IiiEEiEES4_EEPS4_EEjT0_S8_S8_S8_T_
	.weak_def_can_be_hidden	__ZNSt3__17__sort4IRNS_6__lessINS_4pairINS2_IiiEEiEES4_EEPS4_EEjT0_S8_S8_S8_T_
	.align	4, 0x90
__ZNSt3__17__sort4IRNS_6__lessINS_4pairINS2_IiiEEiEES4_EEPS4_EEjT0_S8_S8_S8_T_: ## @_ZNSt3__17__sort4IRNS_6__lessINS_4pairINS2_IiiEEiEES4_EEPS4_EEjT0_S8_S8_S8_T_
	.cfi_startproc
## BB#0:
	pushq	%rbp
Ltmp44:
	.cfi_def_cfa_offset 16
Ltmp45:
	.cfi_offset %rbp, -16
	movq	%rsp, %rbp
Ltmp46:
	.cfi_def_cfa_register %rbp
	subq	$1104, %rsp             ## imm = 0x450
	movq	%rdi, -1040(%rbp)
	movq	%rsi, -1048(%rbp)
	movq	%rdx, -1056(%rbp)
	movq	%rcx, -1064(%rbp)
	movq	%r8, -1072(%rbp)
	movq	-1040(%rbp), %rdi
	movq	-1048(%rbp), %rsi
	movq	-1056(%rbp), %rdx
	movq	-1072(%rbp), %rcx
	callq	__ZNSt3__17__sort3IRNS_6__lessINS_4pairINS2_IiiEEiEES4_EEPS4_EEjT0_S8_S8_T_
	movb	$1, %r9b
	movl	%eax, -1076(%rbp)
	movq	-1072(%rbp), %rcx
	movq	-1064(%rbp), %rdx
	movq	-1056(%rbp), %rsi
	movq	%rcx, -1016(%rbp)
	movq	%rdx, -1024(%rbp)
	movq	%rsi, -1032(%rbp)
	movq	-1024(%rbp), %rcx
	movq	-1032(%rbp), %rdx
	movq	%rcx, -1000(%rbp)
	movq	%rdx, -1008(%rbp)
	movq	-1000(%rbp), %rcx
	movq	-1008(%rbp), %rdx
	movq	%rcx, -984(%rbp)
	movq	%rdx, -992(%rbp)
	movq	-984(%rbp), %rcx
	movl	(%rcx), %eax
	movq	-992(%rbp), %rcx
	cmpl	(%rcx), %eax
	movb	%r9b, -1077(%rbp)       ## 1-byte Spill
	jl	LBB13_4
## BB#1:
	xorl	%eax, %eax
	movb	%al, %cl
	movq	-992(%rbp), %rdx
	movl	(%rdx), %eax
	movq	-984(%rbp), %rdx
	cmpl	(%rdx), %eax
	movb	%cl, -1078(%rbp)        ## 1-byte Spill
	jl	LBB13_3
## BB#2:
	movq	-984(%rbp), %rax
	movl	4(%rax), %ecx
	movq	-992(%rbp), %rax
	cmpl	4(%rax), %ecx
	setl	%dl
	movb	%dl, -1078(%rbp)        ## 1-byte Spill
LBB13_3:
	movb	-1078(%rbp), %al        ## 1-byte Reload
	movb	%al, -1077(%rbp)        ## 1-byte Spill
LBB13_4:                                ## %_ZNSt3__1ltIiiEEbRKNS_4pairIT_T0_EES6_.exit.i.i
	movb	-1077(%rbp), %al        ## 1-byte Reload
	movb	$1, %cl
	testb	$1, %al
	movb	%cl, -1079(%rbp)        ## 1-byte Spill
	jne	LBB13_12
## BB#5:
	movb	$1, %al
	movq	-1008(%rbp), %rcx
	movq	-1000(%rbp), %rdx
	movq	%rcx, -968(%rbp)
	movq	%rdx, -976(%rbp)
	movq	-968(%rbp), %rcx
	movl	(%rcx), %esi
	movq	-976(%rbp), %rcx
	cmpl	(%rcx), %esi
	movb	%al, -1080(%rbp)        ## 1-byte Spill
	jl	LBB13_9
## BB#6:
	xorl	%eax, %eax
	movb	%al, %cl
	movq	-976(%rbp), %rdx
	movl	(%rdx), %eax
	movq	-968(%rbp), %rdx
	cmpl	(%rdx), %eax
	movb	%cl, -1081(%rbp)        ## 1-byte Spill
	jl	LBB13_8
## BB#7:
	movq	-968(%rbp), %rax
	movl	4(%rax), %ecx
	movq	-976(%rbp), %rax
	cmpl	4(%rax), %ecx
	setl	%dl
	movb	%dl, -1081(%rbp)        ## 1-byte Spill
LBB13_8:
	movb	-1081(%rbp), %al        ## 1-byte Reload
	movb	%al, -1080(%rbp)        ## 1-byte Spill
LBB13_9:                                ## %_ZNSt3__1ltIiiEEbRKNS_4pairIT_T0_EES6_.exit1.i.i
	movb	-1080(%rbp), %al        ## 1-byte Reload
	xorl	%ecx, %ecx
	movb	%cl, %dl
	testb	$1, %al
	movb	%dl, -1082(%rbp)        ## 1-byte Spill
	jne	LBB13_11
## BB#10:
	movq	-1000(%rbp), %rax
	movl	8(%rax), %ecx
	movq	-1008(%rbp), %rax
	cmpl	8(%rax), %ecx
	setl	%dl
	movb	%dl, -1082(%rbp)        ## 1-byte Spill
LBB13_11:
	movb	-1082(%rbp), %al        ## 1-byte Reload
	movb	%al, -1079(%rbp)        ## 1-byte Spill
LBB13_12:                               ## %_ZNKSt3__16__lessINS_4pairINS1_IiiEEiEES3_EclERKS3_S6_.exit
	movb	-1079(%rbp), %al        ## 1-byte Reload
	testb	$1, %al
	jne	LBB13_13
	jmp	LBB13_42
LBB13_13:
	movb	$1, %al
	leaq	-44(%rbp), %rcx
	leaq	-108(%rbp), %rdx
	leaq	-172(%rbp), %rsi
	movq	-1056(%rbp), %rdi
	movq	-1064(%rbp), %r8
	movq	%rdi, -264(%rbp)
	movq	%r8, -272(%rbp)
	movq	-264(%rbp), %rdi
	movq	-272(%rbp), %r8
	movq	%rdi, -248(%rbp)
	movq	%r8, -256(%rbp)
	movq	-248(%rbp), %rdi
	movq	-256(%rbp), %r8
	movq	%rdi, -232(%rbp)
	movq	%r8, -240(%rbp)
	movq	-232(%rbp), %r8
	movq	-240(%rbp), %r9
	movq	%r8, -216(%rbp)
	movq	%r9, -224(%rbp)
	movq	-216(%rbp), %r8
	movq	-224(%rbp), %r9
	movq	%r8, -200(%rbp)
	movq	%r9, -208(%rbp)
	movq	-200(%rbp), %r8
	movq	-208(%rbp), %r9
	movq	%r8, -184(%rbp)
	movq	%r9, -192(%rbp)
	movq	-184(%rbp), %r9
	movq	-192(%rbp), %r10
	movq	%r9, -160(%rbp)
	movq	%r10, -168(%rbp)
	movq	-160(%rbp), %r9
	movq	%r9, -152(%rbp)
	movq	-152(%rbp), %r9
	movl	(%r9), %r11d
	movl	%r11d, -172(%rbp)
	movq	-168(%rbp), %r9
	movq	%r9, -136(%rbp)
	movq	-136(%rbp), %r9
	movl	(%r9), %r11d
	movq	-160(%rbp), %r9
	movl	%r11d, (%r9)
	movq	%rsi, -144(%rbp)
	movq	-144(%rbp), %rsi
	movl	(%rsi), %r11d
	movq	-168(%rbp), %rsi
	movl	%r11d, (%rsi)
	addq	$4, %r8
	movq	-208(%rbp), %rsi
	addq	$4, %rsi
	movq	%r8, -120(%rbp)
	movq	%rsi, -128(%rbp)
	movq	-120(%rbp), %rsi
	movq	-128(%rbp), %r8
	movq	%rsi, -96(%rbp)
	movq	%r8, -104(%rbp)
	movq	-96(%rbp), %rsi
	movq	%rsi, -88(%rbp)
	movq	-88(%rbp), %rsi
	movl	(%rsi), %r11d
	movl	%r11d, -108(%rbp)
	movq	-104(%rbp), %rsi
	movq	%rsi, -72(%rbp)
	movq	-72(%rbp), %rsi
	movl	(%rsi), %r11d
	movq	-96(%rbp), %rsi
	movl	%r11d, (%rsi)
	movq	%rdx, -80(%rbp)
	movq	-80(%rbp), %rdx
	movl	(%rdx), %r11d
	movq	-104(%rbp), %rdx
	movl	%r11d, (%rdx)
	addq	$8, %rdi
	movq	-256(%rbp), %rdx
	addq	$8, %rdx
	movq	%rdi, -56(%rbp)
	movq	%rdx, -64(%rbp)
	movq	-56(%rbp), %rdx
	movq	-64(%rbp), %rsi
	movq	%rdx, -32(%rbp)
	movq	%rsi, -40(%rbp)
	movq	-32(%rbp), %rdx
	movq	%rdx, -24(%rbp)
	movq	-24(%rbp), %rdx
	movl	(%rdx), %r11d
	movl	%r11d, -44(%rbp)
	movq	-40(%rbp), %rdx
	movq	%rdx, -8(%rbp)
	movq	-8(%rbp), %rdx
	movl	(%rdx), %r11d
	movq	-32(%rbp), %rdx
	movl	%r11d, (%rdx)
	movq	%rcx, -16(%rbp)
	movq	-16(%rbp), %rcx
	movl	(%rcx), %r11d
	movq	-40(%rbp), %rcx
	movl	%r11d, (%rcx)
	movl	-1076(%rbp), %r11d
	addl	$1, %r11d
	movl	%r11d, -1076(%rbp)
	movq	-1072(%rbp), %rcx
	movq	-1056(%rbp), %rdx
	movq	-1048(%rbp), %rsi
	movq	%rcx, -328(%rbp)
	movq	%rdx, -336(%rbp)
	movq	%rsi, -344(%rbp)
	movq	-336(%rbp), %rcx
	movq	-344(%rbp), %rdx
	movq	%rcx, -312(%rbp)
	movq	%rdx, -320(%rbp)
	movq	-312(%rbp), %rcx
	movq	-320(%rbp), %rdx
	movq	%rcx, -296(%rbp)
	movq	%rdx, -304(%rbp)
	movq	-296(%rbp), %rcx
	movl	(%rcx), %r11d
	movq	-304(%rbp), %rcx
	cmpl	(%rcx), %r11d
	movb	%al, -1083(%rbp)        ## 1-byte Spill
	jl	LBB13_17
## BB#14:
	xorl	%eax, %eax
	movb	%al, %cl
	movq	-304(%rbp), %rdx
	movl	(%rdx), %eax
	movq	-296(%rbp), %rdx
	cmpl	(%rdx), %eax
	movb	%cl, -1084(%rbp)        ## 1-byte Spill
	jl	LBB13_16
## BB#15:
	movq	-296(%rbp), %rax
	movl	4(%rax), %ecx
	movq	-304(%rbp), %rax
	cmpl	4(%rax), %ecx
	setl	%dl
	movb	%dl, -1084(%rbp)        ## 1-byte Spill
LBB13_16:
	movb	-1084(%rbp), %al        ## 1-byte Reload
	movb	%al, -1083(%rbp)        ## 1-byte Spill
LBB13_17:                               ## %_ZNSt3__1ltIiiEEbRKNS_4pairIT_T0_EES6_.exit.i.i.7
	movb	-1083(%rbp), %al        ## 1-byte Reload
	movb	$1, %cl
	testb	$1, %al
	movb	%cl, -1085(%rbp)        ## 1-byte Spill
	jne	LBB13_25
## BB#18:
	movb	$1, %al
	movq	-320(%rbp), %rcx
	movq	-312(%rbp), %rdx
	movq	%rcx, -280(%rbp)
	movq	%rdx, -288(%rbp)
	movq	-280(%rbp), %rcx
	movl	(%rcx), %esi
	movq	-288(%rbp), %rcx
	cmpl	(%rcx), %esi
	movb	%al, -1086(%rbp)        ## 1-byte Spill
	jl	LBB13_22
## BB#19:
	xorl	%eax, %eax
	movb	%al, %cl
	movq	-288(%rbp), %rdx
	movl	(%rdx), %eax
	movq	-280(%rbp), %rdx
	cmpl	(%rdx), %eax
	movb	%cl, -1087(%rbp)        ## 1-byte Spill
	jl	LBB13_21
## BB#20:
	movq	-280(%rbp), %rax
	movl	4(%rax), %ecx
	movq	-288(%rbp), %rax
	cmpl	4(%rax), %ecx
	setl	%dl
	movb	%dl, -1087(%rbp)        ## 1-byte Spill
LBB13_21:
	movb	-1087(%rbp), %al        ## 1-byte Reload
	movb	%al, -1086(%rbp)        ## 1-byte Spill
LBB13_22:                               ## %_ZNSt3__1ltIiiEEbRKNS_4pairIT_T0_EES6_.exit1.i.i.8
	movb	-1086(%rbp), %al        ## 1-byte Reload
	xorl	%ecx, %ecx
	movb	%cl, %dl
	testb	$1, %al
	movb	%dl, -1088(%rbp)        ## 1-byte Spill
	jne	LBB13_24
## BB#23:
	movq	-312(%rbp), %rax
	movl	8(%rax), %ecx
	movq	-320(%rbp), %rax
	cmpl	8(%rax), %ecx
	setl	%dl
	movb	%dl, -1088(%rbp)        ## 1-byte Spill
LBB13_24:
	movb	-1088(%rbp), %al        ## 1-byte Reload
	movb	%al, -1085(%rbp)        ## 1-byte Spill
LBB13_25:                               ## %_ZNKSt3__16__lessINS_4pairINS1_IiiEEiEES3_EclERKS3_S6_.exit9
	movb	-1085(%rbp), %al        ## 1-byte Reload
	testb	$1, %al
	jne	LBB13_26
	jmp	LBB13_41
LBB13_26:
	movb	$1, %al
	leaq	-388(%rbp), %rcx
	leaq	-452(%rbp), %rdx
	leaq	-516(%rbp), %rsi
	movq	-1048(%rbp), %rdi
	movq	-1056(%rbp), %r8
	movq	%rdi, -608(%rbp)
	movq	%r8, -616(%rbp)
	movq	-608(%rbp), %rdi
	movq	-616(%rbp), %r8
	movq	%rdi, -592(%rbp)
	movq	%r8, -600(%rbp)
	movq	-592(%rbp), %rdi
	movq	-600(%rbp), %r8
	movq	%rdi, -576(%rbp)
	movq	%r8, -584(%rbp)
	movq	-576(%rbp), %r8
	movq	-584(%rbp), %r9
	movq	%r8, -560(%rbp)
	movq	%r9, -568(%rbp)
	movq	-560(%rbp), %r8
	movq	-568(%rbp), %r9
	movq	%r8, -544(%rbp)
	movq	%r9, -552(%rbp)
	movq	-544(%rbp), %r8
	movq	-552(%rbp), %r9
	movq	%r8, -528(%rbp)
	movq	%r9, -536(%rbp)
	movq	-528(%rbp), %r9
	movq	-536(%rbp), %r10
	movq	%r9, -504(%rbp)
	movq	%r10, -512(%rbp)
	movq	-504(%rbp), %r9
	movq	%r9, -496(%rbp)
	movq	-496(%rbp), %r9
	movl	(%r9), %r11d
	movl	%r11d, -516(%rbp)
	movq	-512(%rbp), %r9
	movq	%r9, -480(%rbp)
	movq	-480(%rbp), %r9
	movl	(%r9), %r11d
	movq	-504(%rbp), %r9
	movl	%r11d, (%r9)
	movq	%rsi, -488(%rbp)
	movq	-488(%rbp), %rsi
	movl	(%rsi), %r11d
	movq	-512(%rbp), %rsi
	movl	%r11d, (%rsi)
	addq	$4, %r8
	movq	-552(%rbp), %rsi
	addq	$4, %rsi
	movq	%r8, -464(%rbp)
	movq	%rsi, -472(%rbp)
	movq	-464(%rbp), %rsi
	movq	-472(%rbp), %r8
	movq	%rsi, -440(%rbp)
	movq	%r8, -448(%rbp)
	movq	-440(%rbp), %rsi
	movq	%rsi, -432(%rbp)
	movq	-432(%rbp), %rsi
	movl	(%rsi), %r11d
	movl	%r11d, -452(%rbp)
	movq	-448(%rbp), %rsi
	movq	%rsi, -416(%rbp)
	movq	-416(%rbp), %rsi
	movl	(%rsi), %r11d
	movq	-440(%rbp), %rsi
	movl	%r11d, (%rsi)
	movq	%rdx, -424(%rbp)
	movq	-424(%rbp), %rdx
	movl	(%rdx), %r11d
	movq	-448(%rbp), %rdx
	movl	%r11d, (%rdx)
	addq	$8, %rdi
	movq	-600(%rbp), %rdx
	addq	$8, %rdx
	movq	%rdi, -400(%rbp)
	movq	%rdx, -408(%rbp)
	movq	-400(%rbp), %rdx
	movq	-408(%rbp), %rsi
	movq	%rdx, -376(%rbp)
	movq	%rsi, -384(%rbp)
	movq	-376(%rbp), %rdx
	movq	%rdx, -368(%rbp)
	movq	-368(%rbp), %rdx
	movl	(%rdx), %r11d
	movl	%r11d, -388(%rbp)
	movq	-384(%rbp), %rdx
	movq	%rdx, -352(%rbp)
	movq	-352(%rbp), %rdx
	movl	(%rdx), %r11d
	movq	-376(%rbp), %rdx
	movl	%r11d, (%rdx)
	movq	%rcx, -360(%rbp)
	movq	-360(%rbp), %rcx
	movl	(%rcx), %r11d
	movq	-384(%rbp), %rcx
	movl	%r11d, (%rcx)
	movl	-1076(%rbp), %r11d
	addl	$1, %r11d
	movl	%r11d, -1076(%rbp)
	movq	-1072(%rbp), %rcx
	movq	-1048(%rbp), %rdx
	movq	-1040(%rbp), %rsi
	movq	%rcx, -672(%rbp)
	movq	%rdx, -680(%rbp)
	movq	%rsi, -688(%rbp)
	movq	-680(%rbp), %rcx
	movq	-688(%rbp), %rdx
	movq	%rcx, -656(%rbp)
	movq	%rdx, -664(%rbp)
	movq	-656(%rbp), %rcx
	movq	-664(%rbp), %rdx
	movq	%rcx, -640(%rbp)
	movq	%rdx, -648(%rbp)
	movq	-640(%rbp), %rcx
	movl	(%rcx), %r11d
	movq	-648(%rbp), %rcx
	cmpl	(%rcx), %r11d
	movb	%al, -1089(%rbp)        ## 1-byte Spill
	jl	LBB13_30
## BB#27:
	xorl	%eax, %eax
	movb	%al, %cl
	movq	-648(%rbp), %rdx
	movl	(%rdx), %eax
	movq	-640(%rbp), %rdx
	cmpl	(%rdx), %eax
	movb	%cl, -1090(%rbp)        ## 1-byte Spill
	jl	LBB13_29
## BB#28:
	movq	-640(%rbp), %rax
	movl	4(%rax), %ecx
	movq	-648(%rbp), %rax
	cmpl	4(%rax), %ecx
	setl	%dl
	movb	%dl, -1090(%rbp)        ## 1-byte Spill
LBB13_29:
	movb	-1090(%rbp), %al        ## 1-byte Reload
	movb	%al, -1089(%rbp)        ## 1-byte Spill
LBB13_30:                               ## %_ZNSt3__1ltIiiEEbRKNS_4pairIT_T0_EES6_.exit.i.i.1
	movb	-1089(%rbp), %al        ## 1-byte Reload
	movb	$1, %cl
	testb	$1, %al
	movb	%cl, -1091(%rbp)        ## 1-byte Spill
	jne	LBB13_38
## BB#31:
	movb	$1, %al
	movq	-664(%rbp), %rcx
	movq	-656(%rbp), %rdx
	movq	%rcx, -624(%rbp)
	movq	%rdx, -632(%rbp)
	movq	-624(%rbp), %rcx
	movl	(%rcx), %esi
	movq	-632(%rbp), %rcx
	cmpl	(%rcx), %esi
	movb	%al, -1092(%rbp)        ## 1-byte Spill
	jl	LBB13_35
## BB#32:
	xorl	%eax, %eax
	movb	%al, %cl
	movq	-632(%rbp), %rdx
	movl	(%rdx), %eax
	movq	-624(%rbp), %rdx
	cmpl	(%rdx), %eax
	movb	%cl, -1093(%rbp)        ## 1-byte Spill
	jl	LBB13_34
## BB#33:
	movq	-624(%rbp), %rax
	movl	4(%rax), %ecx
	movq	-632(%rbp), %rax
	cmpl	4(%rax), %ecx
	setl	%dl
	movb	%dl, -1093(%rbp)        ## 1-byte Spill
LBB13_34:
	movb	-1093(%rbp), %al        ## 1-byte Reload
	movb	%al, -1092(%rbp)        ## 1-byte Spill
LBB13_35:                               ## %_ZNSt3__1ltIiiEEbRKNS_4pairIT_T0_EES6_.exit1.i.i.2
	movb	-1092(%rbp), %al        ## 1-byte Reload
	xorl	%ecx, %ecx
	movb	%cl, %dl
	testb	$1, %al
	movb	%dl, -1094(%rbp)        ## 1-byte Spill
	jne	LBB13_37
## BB#36:
	movq	-656(%rbp), %rax
	movl	8(%rax), %ecx
	movq	-664(%rbp), %rax
	cmpl	8(%rax), %ecx
	setl	%dl
	movb	%dl, -1094(%rbp)        ## 1-byte Spill
LBB13_37:
	movb	-1094(%rbp), %al        ## 1-byte Reload
	movb	%al, -1091(%rbp)        ## 1-byte Spill
LBB13_38:                               ## %_ZNKSt3__16__lessINS_4pairINS1_IiiEEiEES3_EclERKS3_S6_.exit3
	movb	-1091(%rbp), %al        ## 1-byte Reload
	testb	$1, %al
	jne	LBB13_39
	jmp	LBB13_40
LBB13_39:
	leaq	-732(%rbp), %rax
	leaq	-796(%rbp), %rcx
	leaq	-860(%rbp), %rdx
	movq	-1040(%rbp), %rsi
	movq	-1048(%rbp), %rdi
	movq	%rsi, -952(%rbp)
	movq	%rdi, -960(%rbp)
	movq	-952(%rbp), %rsi
	movq	-960(%rbp), %rdi
	movq	%rsi, -936(%rbp)
	movq	%rdi, -944(%rbp)
	movq	-936(%rbp), %rsi
	movq	-944(%rbp), %rdi
	movq	%rsi, -920(%rbp)
	movq	%rdi, -928(%rbp)
	movq	-920(%rbp), %rdi
	movq	-928(%rbp), %r8
	movq	%rdi, -904(%rbp)
	movq	%r8, -912(%rbp)
	movq	-904(%rbp), %rdi
	movq	-912(%rbp), %r8
	movq	%rdi, -888(%rbp)
	movq	%r8, -896(%rbp)
	movq	-888(%rbp), %rdi
	movq	-896(%rbp), %r8
	movq	%rdi, -872(%rbp)
	movq	%r8, -880(%rbp)
	movq	-872(%rbp), %r8
	movq	-880(%rbp), %r9
	movq	%r8, -848(%rbp)
	movq	%r9, -856(%rbp)
	movq	-848(%rbp), %r8
	movq	%r8, -840(%rbp)
	movq	-840(%rbp), %r8
	movl	(%r8), %r10d
	movl	%r10d, -860(%rbp)
	movq	-856(%rbp), %r8
	movq	%r8, -824(%rbp)
	movq	-824(%rbp), %r8
	movl	(%r8), %r10d
	movq	-848(%rbp), %r8
	movl	%r10d, (%r8)
	movq	%rdx, -832(%rbp)
	movq	-832(%rbp), %rdx
	movl	(%rdx), %r10d
	movq	-856(%rbp), %rdx
	movl	%r10d, (%rdx)
	addq	$4, %rdi
	movq	-896(%rbp), %rdx
	addq	$4, %rdx
	movq	%rdi, -808(%rbp)
	movq	%rdx, -816(%rbp)
	movq	-808(%rbp), %rdx
	movq	-816(%rbp), %rdi
	movq	%rdx, -784(%rbp)
	movq	%rdi, -792(%rbp)
	movq	-784(%rbp), %rdx
	movq	%rdx, -776(%rbp)
	movq	-776(%rbp), %rdx
	movl	(%rdx), %r10d
	movl	%r10d, -796(%rbp)
	movq	-792(%rbp), %rdx
	movq	%rdx, -760(%rbp)
	movq	-760(%rbp), %rdx
	movl	(%rdx), %r10d
	movq	-784(%rbp), %rdx
	movl	%r10d, (%rdx)
	movq	%rcx, -768(%rbp)
	movq	-768(%rbp), %rcx
	movl	(%rcx), %r10d
	movq	-792(%rbp), %rcx
	movl	%r10d, (%rcx)
	addq	$8, %rsi
	movq	-944(%rbp), %rcx
	addq	$8, %rcx
	movq	%rsi, -744(%rbp)
	movq	%rcx, -752(%rbp)
	movq	-744(%rbp), %rcx
	movq	-752(%rbp), %rdx
	movq	%rcx, -720(%rbp)
	movq	%rdx, -728(%rbp)
	movq	-720(%rbp), %rcx
	movq	%rcx, -712(%rbp)
	movq	-712(%rbp), %rcx
	movl	(%rcx), %r10d
	movl	%r10d, -732(%rbp)
	movq	-728(%rbp), %rcx
	movq	%rcx, -696(%rbp)
	movq	-696(%rbp), %rcx
	movl	(%rcx), %r10d
	movq	-720(%rbp), %rcx
	movl	%r10d, (%rcx)
	movq	%rax, -704(%rbp)
	movq	-704(%rbp), %rax
	movl	(%rax), %r10d
	movq	-728(%rbp), %rax
	movl	%r10d, (%rax)
	movl	-1076(%rbp), %r10d
	addl	$1, %r10d
	movl	%r10d, -1076(%rbp)
LBB13_40:
	jmp	LBB13_41
LBB13_41:
	jmp	LBB13_42
LBB13_42:
	movl	-1076(%rbp), %eax
	addq	$1104, %rsp             ## imm = 0x450
	popq	%rbp
	retq
	.cfi_endproc

	.globl	__ZNSt3__17__sort5IRNS_6__lessINS_4pairINS2_IiiEEiEES4_EEPS4_EEjT0_S8_S8_S8_S8_T_
	.weak_def_can_be_hidden	__ZNSt3__17__sort5IRNS_6__lessINS_4pairINS2_IiiEEiEES4_EEPS4_EEjT0_S8_S8_S8_S8_T_
	.align	4, 0x90
__ZNSt3__17__sort5IRNS_6__lessINS_4pairINS2_IiiEEiEES4_EEPS4_EEjT0_S8_S8_S8_S8_T_: ## @_ZNSt3__17__sort5IRNS_6__lessINS_4pairINS2_IiiEEiEES4_EEPS4_EEjT0_S8_S8_S8_S8_T_
	.cfi_startproc
## BB#0:
	pushq	%rbp
Ltmp47:
	.cfi_def_cfa_offset 16
Ltmp48:
	.cfi_offset %rbp, -16
	movq	%rsp, %rbp
Ltmp49:
	.cfi_def_cfa_register %rbp
	subq	$1456, %rsp             ## imm = 0x5B0
	movq	%rdi, -1384(%rbp)
	movq	%rsi, -1392(%rbp)
	movq	%rdx, -1400(%rbp)
	movq	%rcx, -1408(%rbp)
	movq	%r8, -1416(%rbp)
	movq	%r9, -1424(%rbp)
	movq	-1384(%rbp), %rdi
	movq	-1392(%rbp), %rsi
	movq	-1400(%rbp), %rdx
	movq	-1408(%rbp), %rcx
	movq	-1424(%rbp), %r8
	callq	__ZNSt3__17__sort4IRNS_6__lessINS_4pairINS2_IiiEEiEES4_EEPS4_EEjT0_S8_S8_S8_T_
	movb	$1, %r10b
	movl	%eax, -1428(%rbp)
	movq	-1424(%rbp), %rcx
	movq	-1416(%rbp), %rdx
	movq	-1408(%rbp), %rsi
	movq	%rcx, -1360(%rbp)
	movq	%rdx, -1368(%rbp)
	movq	%rsi, -1376(%rbp)
	movq	-1368(%rbp), %rcx
	movq	-1376(%rbp), %rdx
	movq	%rcx, -1344(%rbp)
	movq	%rdx, -1352(%rbp)
	movq	-1344(%rbp), %rcx
	movq	-1352(%rbp), %rdx
	movq	%rcx, -1328(%rbp)
	movq	%rdx, -1336(%rbp)
	movq	-1328(%rbp), %rcx
	movl	(%rcx), %eax
	movq	-1336(%rbp), %rcx
	cmpl	(%rcx), %eax
	movb	%r10b, -1429(%rbp)      ## 1-byte Spill
	jl	LBB14_4
## BB#1:
	xorl	%eax, %eax
	movb	%al, %cl
	movq	-1336(%rbp), %rdx
	movl	(%rdx), %eax
	movq	-1328(%rbp), %rdx
	cmpl	(%rdx), %eax
	movb	%cl, -1430(%rbp)        ## 1-byte Spill
	jl	LBB14_3
## BB#2:
	movq	-1328(%rbp), %rax
	movl	4(%rax), %ecx
	movq	-1336(%rbp), %rax
	cmpl	4(%rax), %ecx
	setl	%dl
	movb	%dl, -1430(%rbp)        ## 1-byte Spill
LBB14_3:
	movb	-1430(%rbp), %al        ## 1-byte Reload
	movb	%al, -1429(%rbp)        ## 1-byte Spill
LBB14_4:                                ## %_ZNSt3__1ltIiiEEbRKNS_4pairIT_T0_EES6_.exit.i.i
	movb	-1429(%rbp), %al        ## 1-byte Reload
	movb	$1, %cl
	testb	$1, %al
	movb	%cl, -1431(%rbp)        ## 1-byte Spill
	jne	LBB14_12
## BB#5:
	movb	$1, %al
	movq	-1352(%rbp), %rcx
	movq	-1344(%rbp), %rdx
	movq	%rcx, -1312(%rbp)
	movq	%rdx, -1320(%rbp)
	movq	-1312(%rbp), %rcx
	movl	(%rcx), %esi
	movq	-1320(%rbp), %rcx
	cmpl	(%rcx), %esi
	movb	%al, -1432(%rbp)        ## 1-byte Spill
	jl	LBB14_9
## BB#6:
	xorl	%eax, %eax
	movb	%al, %cl
	movq	-1320(%rbp), %rdx
	movl	(%rdx), %eax
	movq	-1312(%rbp), %rdx
	cmpl	(%rdx), %eax
	movb	%cl, -1433(%rbp)        ## 1-byte Spill
	jl	LBB14_8
## BB#7:
	movq	-1312(%rbp), %rax
	movl	4(%rax), %ecx
	movq	-1320(%rbp), %rax
	cmpl	4(%rax), %ecx
	setl	%dl
	movb	%dl, -1433(%rbp)        ## 1-byte Spill
LBB14_8:
	movb	-1433(%rbp), %al        ## 1-byte Reload
	movb	%al, -1432(%rbp)        ## 1-byte Spill
LBB14_9:                                ## %_ZNSt3__1ltIiiEEbRKNS_4pairIT_T0_EES6_.exit1.i.i
	movb	-1432(%rbp), %al        ## 1-byte Reload
	xorl	%ecx, %ecx
	movb	%cl, %dl
	testb	$1, %al
	movb	%dl, -1434(%rbp)        ## 1-byte Spill
	jne	LBB14_11
## BB#10:
	movq	-1344(%rbp), %rax
	movl	8(%rax), %ecx
	movq	-1352(%rbp), %rax
	cmpl	8(%rax), %ecx
	setl	%dl
	movb	%dl, -1434(%rbp)        ## 1-byte Spill
LBB14_11:
	movb	-1434(%rbp), %al        ## 1-byte Reload
	movb	%al, -1431(%rbp)        ## 1-byte Spill
LBB14_12:                               ## %_ZNKSt3__16__lessINS_4pairINS1_IiiEEiEES3_EclERKS3_S6_.exit
	movb	-1431(%rbp), %al        ## 1-byte Reload
	testb	$1, %al
	jne	LBB14_13
	jmp	LBB14_56
LBB14_13:
	movb	$1, %al
	leaq	-44(%rbp), %rcx
	leaq	-108(%rbp), %rdx
	leaq	-172(%rbp), %rsi
	movq	-1408(%rbp), %rdi
	movq	-1416(%rbp), %r8
	movq	%rdi, -264(%rbp)
	movq	%r8, -272(%rbp)
	movq	-264(%rbp), %rdi
	movq	-272(%rbp), %r8
	movq	%rdi, -248(%rbp)
	movq	%r8, -256(%rbp)
	movq	-248(%rbp), %rdi
	movq	-256(%rbp), %r8
	movq	%rdi, -232(%rbp)
	movq	%r8, -240(%rbp)
	movq	-232(%rbp), %r8
	movq	-240(%rbp), %r9
	movq	%r8, -216(%rbp)
	movq	%r9, -224(%rbp)
	movq	-216(%rbp), %r8
	movq	-224(%rbp), %r9
	movq	%r8, -200(%rbp)
	movq	%r9, -208(%rbp)
	movq	-200(%rbp), %r8
	movq	-208(%rbp), %r9
	movq	%r8, -184(%rbp)
	movq	%r9, -192(%rbp)
	movq	-184(%rbp), %r9
	movq	-192(%rbp), %r10
	movq	%r9, -160(%rbp)
	movq	%r10, -168(%rbp)
	movq	-160(%rbp), %r9
	movq	%r9, -152(%rbp)
	movq	-152(%rbp), %r9
	movl	(%r9), %r11d
	movl	%r11d, -172(%rbp)
	movq	-168(%rbp), %r9
	movq	%r9, -136(%rbp)
	movq	-136(%rbp), %r9
	movl	(%r9), %r11d
	movq	-160(%rbp), %r9
	movl	%r11d, (%r9)
	movq	%rsi, -144(%rbp)
	movq	-144(%rbp), %rsi
	movl	(%rsi), %r11d
	movq	-168(%rbp), %rsi
	movl	%r11d, (%rsi)
	addq	$4, %r8
	movq	-208(%rbp), %rsi
	addq	$4, %rsi
	movq	%r8, -120(%rbp)
	movq	%rsi, -128(%rbp)
	movq	-120(%rbp), %rsi
	movq	-128(%rbp), %r8
	movq	%rsi, -96(%rbp)
	movq	%r8, -104(%rbp)
	movq	-96(%rbp), %rsi
	movq	%rsi, -88(%rbp)
	movq	-88(%rbp), %rsi
	movl	(%rsi), %r11d
	movl	%r11d, -108(%rbp)
	movq	-104(%rbp), %rsi
	movq	%rsi, -72(%rbp)
	movq	-72(%rbp), %rsi
	movl	(%rsi), %r11d
	movq	-96(%rbp), %rsi
	movl	%r11d, (%rsi)
	movq	%rdx, -80(%rbp)
	movq	-80(%rbp), %rdx
	movl	(%rdx), %r11d
	movq	-104(%rbp), %rdx
	movl	%r11d, (%rdx)
	addq	$8, %rdi
	movq	-256(%rbp), %rdx
	addq	$8, %rdx
	movq	%rdi, -56(%rbp)
	movq	%rdx, -64(%rbp)
	movq	-56(%rbp), %rdx
	movq	-64(%rbp), %rsi
	movq	%rdx, -32(%rbp)
	movq	%rsi, -40(%rbp)
	movq	-32(%rbp), %rdx
	movq	%rdx, -24(%rbp)
	movq	-24(%rbp), %rdx
	movl	(%rdx), %r11d
	movl	%r11d, -44(%rbp)
	movq	-40(%rbp), %rdx
	movq	%rdx, -8(%rbp)
	movq	-8(%rbp), %rdx
	movl	(%rdx), %r11d
	movq	-32(%rbp), %rdx
	movl	%r11d, (%rdx)
	movq	%rcx, -16(%rbp)
	movq	-16(%rbp), %rcx
	movl	(%rcx), %r11d
	movq	-40(%rbp), %rcx
	movl	%r11d, (%rcx)
	movl	-1428(%rbp), %r11d
	addl	$1, %r11d
	movl	%r11d, -1428(%rbp)
	movq	-1424(%rbp), %rcx
	movq	-1408(%rbp), %rdx
	movq	-1400(%rbp), %rsi
	movq	%rcx, -328(%rbp)
	movq	%rdx, -336(%rbp)
	movq	%rsi, -344(%rbp)
	movq	-336(%rbp), %rcx
	movq	-344(%rbp), %rdx
	movq	%rcx, -312(%rbp)
	movq	%rdx, -320(%rbp)
	movq	-312(%rbp), %rcx
	movq	-320(%rbp), %rdx
	movq	%rcx, -296(%rbp)
	movq	%rdx, -304(%rbp)
	movq	-296(%rbp), %rcx
	movl	(%rcx), %r11d
	movq	-304(%rbp), %rcx
	cmpl	(%rcx), %r11d
	movb	%al, -1435(%rbp)        ## 1-byte Spill
	jl	LBB14_17
## BB#14:
	xorl	%eax, %eax
	movb	%al, %cl
	movq	-304(%rbp), %rdx
	movl	(%rdx), %eax
	movq	-296(%rbp), %rdx
	cmpl	(%rdx), %eax
	movb	%cl, -1436(%rbp)        ## 1-byte Spill
	jl	LBB14_16
## BB#15:
	movq	-296(%rbp), %rax
	movl	4(%rax), %ecx
	movq	-304(%rbp), %rax
	cmpl	4(%rax), %ecx
	setl	%dl
	movb	%dl, -1436(%rbp)        ## 1-byte Spill
LBB14_16:
	movb	-1436(%rbp), %al        ## 1-byte Reload
	movb	%al, -1435(%rbp)        ## 1-byte Spill
LBB14_17:                               ## %_ZNSt3__1ltIiiEEbRKNS_4pairIT_T0_EES6_.exit.i.i.13
	movb	-1435(%rbp), %al        ## 1-byte Reload
	movb	$1, %cl
	testb	$1, %al
	movb	%cl, -1437(%rbp)        ## 1-byte Spill
	jne	LBB14_25
## BB#18:
	movb	$1, %al
	movq	-320(%rbp), %rcx
	movq	-312(%rbp), %rdx
	movq	%rcx, -280(%rbp)
	movq	%rdx, -288(%rbp)
	movq	-280(%rbp), %rcx
	movl	(%rcx), %esi
	movq	-288(%rbp), %rcx
	cmpl	(%rcx), %esi
	movb	%al, -1438(%rbp)        ## 1-byte Spill
	jl	LBB14_22
## BB#19:
	xorl	%eax, %eax
	movb	%al, %cl
	movq	-288(%rbp), %rdx
	movl	(%rdx), %eax
	movq	-280(%rbp), %rdx
	cmpl	(%rdx), %eax
	movb	%cl, -1439(%rbp)        ## 1-byte Spill
	jl	LBB14_21
## BB#20:
	movq	-280(%rbp), %rax
	movl	4(%rax), %ecx
	movq	-288(%rbp), %rax
	cmpl	4(%rax), %ecx
	setl	%dl
	movb	%dl, -1439(%rbp)        ## 1-byte Spill
LBB14_21:
	movb	-1439(%rbp), %al        ## 1-byte Reload
	movb	%al, -1438(%rbp)        ## 1-byte Spill
LBB14_22:                               ## %_ZNSt3__1ltIiiEEbRKNS_4pairIT_T0_EES6_.exit1.i.i.14
	movb	-1438(%rbp), %al        ## 1-byte Reload
	xorl	%ecx, %ecx
	movb	%cl, %dl
	testb	$1, %al
	movb	%dl, -1440(%rbp)        ## 1-byte Spill
	jne	LBB14_24
## BB#23:
	movq	-312(%rbp), %rax
	movl	8(%rax), %ecx
	movq	-320(%rbp), %rax
	cmpl	8(%rax), %ecx
	setl	%dl
	movb	%dl, -1440(%rbp)        ## 1-byte Spill
LBB14_24:
	movb	-1440(%rbp), %al        ## 1-byte Reload
	movb	%al, -1437(%rbp)        ## 1-byte Spill
LBB14_25:                               ## %_ZNKSt3__16__lessINS_4pairINS1_IiiEEiEES3_EclERKS3_S6_.exit15
	movb	-1437(%rbp), %al        ## 1-byte Reload
	testb	$1, %al
	jne	LBB14_26
	jmp	LBB14_55
LBB14_26:
	movb	$1, %al
	leaq	-388(%rbp), %rcx
	leaq	-452(%rbp), %rdx
	leaq	-516(%rbp), %rsi
	movq	-1400(%rbp), %rdi
	movq	-1408(%rbp), %r8
	movq	%rdi, -608(%rbp)
	movq	%r8, -616(%rbp)
	movq	-608(%rbp), %rdi
	movq	-616(%rbp), %r8
	movq	%rdi, -592(%rbp)
	movq	%r8, -600(%rbp)
	movq	-592(%rbp), %rdi
	movq	-600(%rbp), %r8
	movq	%rdi, -576(%rbp)
	movq	%r8, -584(%rbp)
	movq	-576(%rbp), %r8
	movq	-584(%rbp), %r9
	movq	%r8, -560(%rbp)
	movq	%r9, -568(%rbp)
	movq	-560(%rbp), %r8
	movq	-568(%rbp), %r9
	movq	%r8, -544(%rbp)
	movq	%r9, -552(%rbp)
	movq	-544(%rbp), %r8
	movq	-552(%rbp), %r9
	movq	%r8, -528(%rbp)
	movq	%r9, -536(%rbp)
	movq	-528(%rbp), %r9
	movq	-536(%rbp), %r10
	movq	%r9, -504(%rbp)
	movq	%r10, -512(%rbp)
	movq	-504(%rbp), %r9
	movq	%r9, -496(%rbp)
	movq	-496(%rbp), %r9
	movl	(%r9), %r11d
	movl	%r11d, -516(%rbp)
	movq	-512(%rbp), %r9
	movq	%r9, -480(%rbp)
	movq	-480(%rbp), %r9
	movl	(%r9), %r11d
	movq	-504(%rbp), %r9
	movl	%r11d, (%r9)
	movq	%rsi, -488(%rbp)
	movq	-488(%rbp), %rsi
	movl	(%rsi), %r11d
	movq	-512(%rbp), %rsi
	movl	%r11d, (%rsi)
	addq	$4, %r8
	movq	-552(%rbp), %rsi
	addq	$4, %rsi
	movq	%r8, -464(%rbp)
	movq	%rsi, -472(%rbp)
	movq	-464(%rbp), %rsi
	movq	-472(%rbp), %r8
	movq	%rsi, -440(%rbp)
	movq	%r8, -448(%rbp)
	movq	-440(%rbp), %rsi
	movq	%rsi, -432(%rbp)
	movq	-432(%rbp), %rsi
	movl	(%rsi), %r11d
	movl	%r11d, -452(%rbp)
	movq	-448(%rbp), %rsi
	movq	%rsi, -416(%rbp)
	movq	-416(%rbp), %rsi
	movl	(%rsi), %r11d
	movq	-440(%rbp), %rsi
	movl	%r11d, (%rsi)
	movq	%rdx, -424(%rbp)
	movq	-424(%rbp), %rdx
	movl	(%rdx), %r11d
	movq	-448(%rbp), %rdx
	movl	%r11d, (%rdx)
	addq	$8, %rdi
	movq	-600(%rbp), %rdx
	addq	$8, %rdx
	movq	%rdi, -400(%rbp)
	movq	%rdx, -408(%rbp)
	movq	-400(%rbp), %rdx
	movq	-408(%rbp), %rsi
	movq	%rdx, -376(%rbp)
	movq	%rsi, -384(%rbp)
	movq	-376(%rbp), %rdx
	movq	%rdx, -368(%rbp)
	movq	-368(%rbp), %rdx
	movl	(%rdx), %r11d
	movl	%r11d, -388(%rbp)
	movq	-384(%rbp), %rdx
	movq	%rdx, -352(%rbp)
	movq	-352(%rbp), %rdx
	movl	(%rdx), %r11d
	movq	-376(%rbp), %rdx
	movl	%r11d, (%rdx)
	movq	%rcx, -360(%rbp)
	movq	-360(%rbp), %rcx
	movl	(%rcx), %r11d
	movq	-384(%rbp), %rcx
	movl	%r11d, (%rcx)
	movl	-1428(%rbp), %r11d
	addl	$1, %r11d
	movl	%r11d, -1428(%rbp)
	movq	-1424(%rbp), %rcx
	movq	-1400(%rbp), %rdx
	movq	-1392(%rbp), %rsi
	movq	%rcx, -672(%rbp)
	movq	%rdx, -680(%rbp)
	movq	%rsi, -688(%rbp)
	movq	-680(%rbp), %rcx
	movq	-688(%rbp), %rdx
	movq	%rcx, -656(%rbp)
	movq	%rdx, -664(%rbp)
	movq	-656(%rbp), %rcx
	movq	-664(%rbp), %rdx
	movq	%rcx, -640(%rbp)
	movq	%rdx, -648(%rbp)
	movq	-640(%rbp), %rcx
	movl	(%rcx), %r11d
	movq	-648(%rbp), %rcx
	cmpl	(%rcx), %r11d
	movb	%al, -1441(%rbp)        ## 1-byte Spill
	jl	LBB14_30
## BB#27:
	xorl	%eax, %eax
	movb	%al, %cl
	movq	-648(%rbp), %rdx
	movl	(%rdx), %eax
	movq	-640(%rbp), %rdx
	cmpl	(%rdx), %eax
	movb	%cl, -1442(%rbp)        ## 1-byte Spill
	jl	LBB14_29
## BB#28:
	movq	-640(%rbp), %rax
	movl	4(%rax), %ecx
	movq	-648(%rbp), %rax
	cmpl	4(%rax), %ecx
	setl	%dl
	movb	%dl, -1442(%rbp)        ## 1-byte Spill
LBB14_29:
	movb	-1442(%rbp), %al        ## 1-byte Reload
	movb	%al, -1441(%rbp)        ## 1-byte Spill
LBB14_30:                               ## %_ZNSt3__1ltIiiEEbRKNS_4pairIT_T0_EES6_.exit.i.i.7
	movb	-1441(%rbp), %al        ## 1-byte Reload
	movb	$1, %cl
	testb	$1, %al
	movb	%cl, -1443(%rbp)        ## 1-byte Spill
	jne	LBB14_38
## BB#31:
	movb	$1, %al
	movq	-664(%rbp), %rcx
	movq	-656(%rbp), %rdx
	movq	%rcx, -624(%rbp)
	movq	%rdx, -632(%rbp)
	movq	-624(%rbp), %rcx
	movl	(%rcx), %esi
	movq	-632(%rbp), %rcx
	cmpl	(%rcx), %esi
	movb	%al, -1444(%rbp)        ## 1-byte Spill
	jl	LBB14_35
## BB#32:
	xorl	%eax, %eax
	movb	%al, %cl
	movq	-632(%rbp), %rdx
	movl	(%rdx), %eax
	movq	-624(%rbp), %rdx
	cmpl	(%rdx), %eax
	movb	%cl, -1445(%rbp)        ## 1-byte Spill
	jl	LBB14_34
## BB#33:
	movq	-624(%rbp), %rax
	movl	4(%rax), %ecx
	movq	-632(%rbp), %rax
	cmpl	4(%rax), %ecx
	setl	%dl
	movb	%dl, -1445(%rbp)        ## 1-byte Spill
LBB14_34:
	movb	-1445(%rbp), %al        ## 1-byte Reload
	movb	%al, -1444(%rbp)        ## 1-byte Spill
LBB14_35:                               ## %_ZNSt3__1ltIiiEEbRKNS_4pairIT_T0_EES6_.exit1.i.i.8
	movb	-1444(%rbp), %al        ## 1-byte Reload
	xorl	%ecx, %ecx
	movb	%cl, %dl
	testb	$1, %al
	movb	%dl, -1446(%rbp)        ## 1-byte Spill
	jne	LBB14_37
## BB#36:
	movq	-656(%rbp), %rax
	movl	8(%rax), %ecx
	movq	-664(%rbp), %rax
	cmpl	8(%rax), %ecx
	setl	%dl
	movb	%dl, -1446(%rbp)        ## 1-byte Spill
LBB14_37:
	movb	-1446(%rbp), %al        ## 1-byte Reload
	movb	%al, -1443(%rbp)        ## 1-byte Spill
LBB14_38:                               ## %_ZNKSt3__16__lessINS_4pairINS1_IiiEEiEES3_EclERKS3_S6_.exit9
	movb	-1443(%rbp), %al        ## 1-byte Reload
	testb	$1, %al
	jne	LBB14_39
	jmp	LBB14_54
LBB14_39:
	movb	$1, %al
	leaq	-732(%rbp), %rcx
	leaq	-796(%rbp), %rdx
	leaq	-860(%rbp), %rsi
	movq	-1392(%rbp), %rdi
	movq	-1400(%rbp), %r8
	movq	%rdi, -952(%rbp)
	movq	%r8, -960(%rbp)
	movq	-952(%rbp), %rdi
	movq	-960(%rbp), %r8
	movq	%rdi, -936(%rbp)
	movq	%r8, -944(%rbp)
	movq	-936(%rbp), %rdi
	movq	-944(%rbp), %r8
	movq	%rdi, -920(%rbp)
	movq	%r8, -928(%rbp)
	movq	-920(%rbp), %r8
	movq	-928(%rbp), %r9
	movq	%r8, -904(%rbp)
	movq	%r9, -912(%rbp)
	movq	-904(%rbp), %r8
	movq	-912(%rbp), %r9
	movq	%r8, -888(%rbp)
	movq	%r9, -896(%rbp)
	movq	-888(%rbp), %r8
	movq	-896(%rbp), %r9
	movq	%r8, -872(%rbp)
	movq	%r9, -880(%rbp)
	movq	-872(%rbp), %r9
	movq	-880(%rbp), %r10
	movq	%r9, -848(%rbp)
	movq	%r10, -856(%rbp)
	movq	-848(%rbp), %r9
	movq	%r9, -840(%rbp)
	movq	-840(%rbp), %r9
	movl	(%r9), %r11d
	movl	%r11d, -860(%rbp)
	movq	-856(%rbp), %r9
	movq	%r9, -824(%rbp)
	movq	-824(%rbp), %r9
	movl	(%r9), %r11d
	movq	-848(%rbp), %r9
	movl	%r11d, (%r9)
	movq	%rsi, -832(%rbp)
	movq	-832(%rbp), %rsi
	movl	(%rsi), %r11d
	movq	-856(%rbp), %rsi
	movl	%r11d, (%rsi)
	addq	$4, %r8
	movq	-896(%rbp), %rsi
	addq	$4, %rsi
	movq	%r8, -808(%rbp)
	movq	%rsi, -816(%rbp)
	movq	-808(%rbp), %rsi
	movq	-816(%rbp), %r8
	movq	%rsi, -784(%rbp)
	movq	%r8, -792(%rbp)
	movq	-784(%rbp), %rsi
	movq	%rsi, -776(%rbp)
	movq	-776(%rbp), %rsi
	movl	(%rsi), %r11d
	movl	%r11d, -796(%rbp)
	movq	-792(%rbp), %rsi
	movq	%rsi, -760(%rbp)
	movq	-760(%rbp), %rsi
	movl	(%rsi), %r11d
	movq	-784(%rbp), %rsi
	movl	%r11d, (%rsi)
	movq	%rdx, -768(%rbp)
	movq	-768(%rbp), %rdx
	movl	(%rdx), %r11d
	movq	-792(%rbp), %rdx
	movl	%r11d, (%rdx)
	addq	$8, %rdi
	movq	-944(%rbp), %rdx
	addq	$8, %rdx
	movq	%rdi, -744(%rbp)
	movq	%rdx, -752(%rbp)
	movq	-744(%rbp), %rdx
	movq	-752(%rbp), %rsi
	movq	%rdx, -720(%rbp)
	movq	%rsi, -728(%rbp)
	movq	-720(%rbp), %rdx
	movq	%rdx, -712(%rbp)
	movq	-712(%rbp), %rdx
	movl	(%rdx), %r11d
	movl	%r11d, -732(%rbp)
	movq	-728(%rbp), %rdx
	movq	%rdx, -696(%rbp)
	movq	-696(%rbp), %rdx
	movl	(%rdx), %r11d
	movq	-720(%rbp), %rdx
	movl	%r11d, (%rdx)
	movq	%rcx, -704(%rbp)
	movq	-704(%rbp), %rcx
	movl	(%rcx), %r11d
	movq	-728(%rbp), %rcx
	movl	%r11d, (%rcx)
	movl	-1428(%rbp), %r11d
	addl	$1, %r11d
	movl	%r11d, -1428(%rbp)
	movq	-1424(%rbp), %rcx
	movq	-1392(%rbp), %rdx
	movq	-1384(%rbp), %rsi
	movq	%rcx, -1016(%rbp)
	movq	%rdx, -1024(%rbp)
	movq	%rsi, -1032(%rbp)
	movq	-1024(%rbp), %rcx
	movq	-1032(%rbp), %rdx
	movq	%rcx, -1000(%rbp)
	movq	%rdx, -1008(%rbp)
	movq	-1000(%rbp), %rcx
	movq	-1008(%rbp), %rdx
	movq	%rcx, -984(%rbp)
	movq	%rdx, -992(%rbp)
	movq	-984(%rbp), %rcx
	movl	(%rcx), %r11d
	movq	-992(%rbp), %rcx
	cmpl	(%rcx), %r11d
	movb	%al, -1447(%rbp)        ## 1-byte Spill
	jl	LBB14_43
## BB#40:
	xorl	%eax, %eax
	movb	%al, %cl
	movq	-992(%rbp), %rdx
	movl	(%rdx), %eax
	movq	-984(%rbp), %rdx
	cmpl	(%rdx), %eax
	movb	%cl, -1448(%rbp)        ## 1-byte Spill
	jl	LBB14_42
## BB#41:
	movq	-984(%rbp), %rax
	movl	4(%rax), %ecx
	movq	-992(%rbp), %rax
	cmpl	4(%rax), %ecx
	setl	%dl
	movb	%dl, -1448(%rbp)        ## 1-byte Spill
LBB14_42:
	movb	-1448(%rbp), %al        ## 1-byte Reload
	movb	%al, -1447(%rbp)        ## 1-byte Spill
LBB14_43:                               ## %_ZNSt3__1ltIiiEEbRKNS_4pairIT_T0_EES6_.exit.i.i.1
	movb	-1447(%rbp), %al        ## 1-byte Reload
	movb	$1, %cl
	testb	$1, %al
	movb	%cl, -1449(%rbp)        ## 1-byte Spill
	jne	LBB14_51
## BB#44:
	movb	$1, %al
	movq	-1008(%rbp), %rcx
	movq	-1000(%rbp), %rdx
	movq	%rcx, -968(%rbp)
	movq	%rdx, -976(%rbp)
	movq	-968(%rbp), %rcx
	movl	(%rcx), %esi
	movq	-976(%rbp), %rcx
	cmpl	(%rcx), %esi
	movb	%al, -1450(%rbp)        ## 1-byte Spill
	jl	LBB14_48
## BB#45:
	xorl	%eax, %eax
	movb	%al, %cl
	movq	-976(%rbp), %rdx
	movl	(%rdx), %eax
	movq	-968(%rbp), %rdx
	cmpl	(%rdx), %eax
	movb	%cl, -1451(%rbp)        ## 1-byte Spill
	jl	LBB14_47
## BB#46:
	movq	-968(%rbp), %rax
	movl	4(%rax), %ecx
	movq	-976(%rbp), %rax
	cmpl	4(%rax), %ecx
	setl	%dl
	movb	%dl, -1451(%rbp)        ## 1-byte Spill
LBB14_47:
	movb	-1451(%rbp), %al        ## 1-byte Reload
	movb	%al, -1450(%rbp)        ## 1-byte Spill
LBB14_48:                               ## %_ZNSt3__1ltIiiEEbRKNS_4pairIT_T0_EES6_.exit1.i.i.2
	movb	-1450(%rbp), %al        ## 1-byte Reload
	xorl	%ecx, %ecx
	movb	%cl, %dl
	testb	$1, %al
	movb	%dl, -1452(%rbp)        ## 1-byte Spill
	jne	LBB14_50
## BB#49:
	movq	-1000(%rbp), %rax
	movl	8(%rax), %ecx
	movq	-1008(%rbp), %rax
	cmpl	8(%rax), %ecx
	setl	%dl
	movb	%dl, -1452(%rbp)        ## 1-byte Spill
LBB14_50:
	movb	-1452(%rbp), %al        ## 1-byte Reload
	movb	%al, -1449(%rbp)        ## 1-byte Spill
LBB14_51:                               ## %_ZNKSt3__16__lessINS_4pairINS1_IiiEEiEES3_EclERKS3_S6_.exit3
	movb	-1449(%rbp), %al        ## 1-byte Reload
	testb	$1, %al
	jne	LBB14_52
	jmp	LBB14_53
LBB14_52:
	leaq	-1076(%rbp), %rax
	leaq	-1140(%rbp), %rcx
	leaq	-1204(%rbp), %rdx
	movq	-1384(%rbp), %rsi
	movq	-1392(%rbp), %rdi
	movq	%rsi, -1296(%rbp)
	movq	%rdi, -1304(%rbp)
	movq	-1296(%rbp), %rsi
	movq	-1304(%rbp), %rdi
	movq	%rsi, -1280(%rbp)
	movq	%rdi, -1288(%rbp)
	movq	-1280(%rbp), %rsi
	movq	-1288(%rbp), %rdi
	movq	%rsi, -1264(%rbp)
	movq	%rdi, -1272(%rbp)
	movq	-1264(%rbp), %rdi
	movq	-1272(%rbp), %r8
	movq	%rdi, -1248(%rbp)
	movq	%r8, -1256(%rbp)
	movq	-1248(%rbp), %rdi
	movq	-1256(%rbp), %r8
	movq	%rdi, -1232(%rbp)
	movq	%r8, -1240(%rbp)
	movq	-1232(%rbp), %rdi
	movq	-1240(%rbp), %r8
	movq	%rdi, -1216(%rbp)
	movq	%r8, -1224(%rbp)
	movq	-1216(%rbp), %r8
	movq	-1224(%rbp), %r9
	movq	%r8, -1192(%rbp)
	movq	%r9, -1200(%rbp)
	movq	-1192(%rbp), %r8
	movq	%r8, -1184(%rbp)
	movq	-1184(%rbp), %r8
	movl	(%r8), %r10d
	movl	%r10d, -1204(%rbp)
	movq	-1200(%rbp), %r8
	movq	%r8, -1168(%rbp)
	movq	-1168(%rbp), %r8
	movl	(%r8), %r10d
	movq	-1192(%rbp), %r8
	movl	%r10d, (%r8)
	movq	%rdx, -1176(%rbp)
	movq	-1176(%rbp), %rdx
	movl	(%rdx), %r10d
	movq	-1200(%rbp), %rdx
	movl	%r10d, (%rdx)
	addq	$4, %rdi
	movq	-1240(%rbp), %rdx
	addq	$4, %rdx
	movq	%rdi, -1152(%rbp)
	movq	%rdx, -1160(%rbp)
	movq	-1152(%rbp), %rdx
	movq	-1160(%rbp), %rdi
	movq	%rdx, -1128(%rbp)
	movq	%rdi, -1136(%rbp)
	movq	-1128(%rbp), %rdx
	movq	%rdx, -1120(%rbp)
	movq	-1120(%rbp), %rdx
	movl	(%rdx), %r10d
	movl	%r10d, -1140(%rbp)
	movq	-1136(%rbp), %rdx
	movq	%rdx, -1104(%rbp)
	movq	-1104(%rbp), %rdx
	movl	(%rdx), %r10d
	movq	-1128(%rbp), %rdx
	movl	%r10d, (%rdx)
	movq	%rcx, -1112(%rbp)
	movq	-1112(%rbp), %rcx
	movl	(%rcx), %r10d
	movq	-1136(%rbp), %rcx
	movl	%r10d, (%rcx)
	addq	$8, %rsi
	movq	-1288(%rbp), %rcx
	addq	$8, %rcx
	movq	%rsi, -1088(%rbp)
	movq	%rcx, -1096(%rbp)
	movq	-1088(%rbp), %rcx
	movq	-1096(%rbp), %rdx
	movq	%rcx, -1064(%rbp)
	movq	%rdx, -1072(%rbp)
	movq	-1064(%rbp), %rcx
	movq	%rcx, -1056(%rbp)
	movq	-1056(%rbp), %rcx
	movl	(%rcx), %r10d
	movl	%r10d, -1076(%rbp)
	movq	-1072(%rbp), %rcx
	movq	%rcx, -1040(%rbp)
	movq	-1040(%rbp), %rcx
	movl	(%rcx), %r10d
	movq	-1064(%rbp), %rcx
	movl	%r10d, (%rcx)
	movq	%rax, -1048(%rbp)
	movq	-1048(%rbp), %rax
	movl	(%rax), %r10d
	movq	-1072(%rbp), %rax
	movl	%r10d, (%rax)
	movl	-1428(%rbp), %r10d
	addl	$1, %r10d
	movl	%r10d, -1428(%rbp)
LBB14_53:
	jmp	LBB14_54
LBB14_54:
	jmp	LBB14_55
LBB14_55:
	jmp	LBB14_56
LBB14_56:
	movl	-1428(%rbp), %eax
	addq	$1456, %rsp             ## imm = 0x5B0
	popq	%rbp
	retq
	.cfi_endproc

	.globl	__ZNSt3__118__insertion_sort_3IRNS_6__lessINS_4pairINS2_IiiEEiEES4_EEPS4_EEvT0_S8_T_
	.weak_def_can_be_hidden	__ZNSt3__118__insertion_sort_3IRNS_6__lessINS_4pairINS2_IiiEEiEES4_EEPS4_EEvT0_S8_T_
	.align	4, 0x90
__ZNSt3__118__insertion_sort_3IRNS_6__lessINS_4pairINS2_IiiEEiEES4_EEPS4_EEvT0_S8_T_: ## @_ZNSt3__118__insertion_sort_3IRNS_6__lessINS_4pairINS2_IiiEEiEES4_EEPS4_EEvT0_S8_T_
	.cfi_startproc
## BB#0:
	pushq	%rbp
Ltmp50:
	.cfi_def_cfa_offset 16
Ltmp51:
	.cfi_offset %rbp, -16
	movq	%rsp, %rbp
Ltmp52:
	.cfi_def_cfa_register %rbp
	subq	$336, %rsp              ## imm = 0x150
	movq	%rdi, -240(%rbp)
	movq	%rsi, -248(%rbp)
	movq	%rdx, -256(%rbp)
	movq	-240(%rbp), %rdx
	addq	$24, %rdx
	movq	%rdx, -264(%rbp)
	movq	-240(%rbp), %rdi
	movq	-240(%rbp), %rdx
	addq	$12, %rdx
	movq	-264(%rbp), %rsi
	movq	-256(%rbp), %rcx
	movq	%rsi, -304(%rbp)        ## 8-byte Spill
	movq	%rdx, %rsi
	movq	-304(%rbp), %rdx        ## 8-byte Reload
	callq	__ZNSt3__17__sort3IRNS_6__lessINS_4pairINS2_IiiEEiEES4_EEPS4_EEjT0_S8_S8_T_
	movq	-264(%rbp), %rcx
	addq	$12, %rcx
	movq	%rcx, -272(%rbp)
	movl	%eax, -308(%rbp)        ## 4-byte Spill
LBB15_1:                                ## =>This Loop Header: Depth=1
                                        ##     Child Loop BB15_16 Depth 2
	movq	-272(%rbp), %rax
	cmpq	-248(%rbp), %rax
	je	LBB15_35
## BB#2:                                ##   in Loop: Header=BB15_1 Depth=1
	movb	$1, %al
	movq	-256(%rbp), %rcx
	movq	-272(%rbp), %rdx
	movq	-264(%rbp), %rsi
	movq	%rcx, -216(%rbp)
	movq	%rdx, -224(%rbp)
	movq	%rsi, -232(%rbp)
	movq	-224(%rbp), %rcx
	movq	-232(%rbp), %rdx
	movq	%rcx, -200(%rbp)
	movq	%rdx, -208(%rbp)
	movq	-200(%rbp), %rcx
	movq	-208(%rbp), %rdx
	movq	%rcx, -184(%rbp)
	movq	%rdx, -192(%rbp)
	movq	-184(%rbp), %rcx
	movl	(%rcx), %edi
	movq	-192(%rbp), %rcx
	cmpl	(%rcx), %edi
	movb	%al, -309(%rbp)         ## 1-byte Spill
	jl	LBB15_6
## BB#3:                                ##   in Loop: Header=BB15_1 Depth=1
	xorl	%eax, %eax
	movb	%al, %cl
	movq	-192(%rbp), %rdx
	movl	(%rdx), %eax
	movq	-184(%rbp), %rdx
	cmpl	(%rdx), %eax
	movb	%cl, -310(%rbp)         ## 1-byte Spill
	jl	LBB15_5
## BB#4:                                ##   in Loop: Header=BB15_1 Depth=1
	movq	-184(%rbp), %rax
	movl	4(%rax), %ecx
	movq	-192(%rbp), %rax
	cmpl	4(%rax), %ecx
	setl	%dl
	movb	%dl, -310(%rbp)         ## 1-byte Spill
LBB15_5:                                ##   in Loop: Header=BB15_1 Depth=1
	movb	-310(%rbp), %al         ## 1-byte Reload
	movb	%al, -309(%rbp)         ## 1-byte Spill
LBB15_6:                                ## %_ZNSt3__1ltIiiEEbRKNS_4pairIT_T0_EES6_.exit.i.i
                                        ##   in Loop: Header=BB15_1 Depth=1
	movb	-309(%rbp), %al         ## 1-byte Reload
	movb	$1, %cl
	testb	$1, %al
	movb	%cl, -311(%rbp)         ## 1-byte Spill
	jne	LBB15_14
## BB#7:                                ##   in Loop: Header=BB15_1 Depth=1
	movb	$1, %al
	movq	-208(%rbp), %rcx
	movq	-200(%rbp), %rdx
	movq	%rcx, -168(%rbp)
	movq	%rdx, -176(%rbp)
	movq	-168(%rbp), %rcx
	movl	(%rcx), %esi
	movq	-176(%rbp), %rcx
	cmpl	(%rcx), %esi
	movb	%al, -312(%rbp)         ## 1-byte Spill
	jl	LBB15_11
## BB#8:                                ##   in Loop: Header=BB15_1 Depth=1
	xorl	%eax, %eax
	movb	%al, %cl
	movq	-176(%rbp), %rdx
	movl	(%rdx), %eax
	movq	-168(%rbp), %rdx
	cmpl	(%rdx), %eax
	movb	%cl, -313(%rbp)         ## 1-byte Spill
	jl	LBB15_10
## BB#9:                                ##   in Loop: Header=BB15_1 Depth=1
	movq	-168(%rbp), %rax
	movl	4(%rax), %ecx
	movq	-176(%rbp), %rax
	cmpl	4(%rax), %ecx
	setl	%dl
	movb	%dl, -313(%rbp)         ## 1-byte Spill
LBB15_10:                               ##   in Loop: Header=BB15_1 Depth=1
	movb	-313(%rbp), %al         ## 1-byte Reload
	movb	%al, -312(%rbp)         ## 1-byte Spill
LBB15_11:                               ## %_ZNSt3__1ltIiiEEbRKNS_4pairIT_T0_EES6_.exit1.i.i
                                        ##   in Loop: Header=BB15_1 Depth=1
	movb	-312(%rbp), %al         ## 1-byte Reload
	xorl	%ecx, %ecx
	movb	%cl, %dl
	testb	$1, %al
	movb	%dl, -314(%rbp)         ## 1-byte Spill
	jne	LBB15_13
## BB#12:                               ##   in Loop: Header=BB15_1 Depth=1
	movq	-200(%rbp), %rax
	movl	8(%rax), %ecx
	movq	-208(%rbp), %rax
	cmpl	8(%rax), %ecx
	setl	%dl
	movb	%dl, -314(%rbp)         ## 1-byte Spill
LBB15_13:                               ##   in Loop: Header=BB15_1 Depth=1
	movb	-314(%rbp), %al         ## 1-byte Reload
	movb	%al, -311(%rbp)         ## 1-byte Spill
LBB15_14:                               ## %_ZNKSt3__16__lessINS_4pairINS1_IiiEEiEES3_EclERKS3_S6_.exit
                                        ##   in Loop: Header=BB15_1 Depth=1
	movb	-311(%rbp), %al         ## 1-byte Reload
	testb	$1, %al
	jne	LBB15_15
	jmp	LBB15_33
LBB15_15:                               ##   in Loop: Header=BB15_1 Depth=1
	movq	-272(%rbp), %rax
	movq	%rax, -8(%rbp)
	movq	-8(%rbp), %rax
	movq	(%rax), %rcx
	movq	%rcx, -288(%rbp)
	movl	8(%rax), %edx
	movl	%edx, -280(%rbp)
	movq	-264(%rbp), %rax
	movq	%rax, -296(%rbp)
	movq	-272(%rbp), %rax
	movq	%rax, -264(%rbp)
LBB15_16:                               ##   Parent Loop BB15_1 Depth=1
                                        ## =>  This Inner Loop Header: Depth=2
	movq	-264(%rbp), %rax
	movq	-296(%rbp), %rcx
	movq	%rcx, -16(%rbp)
	movq	-16(%rbp), %rcx
	movq	%rax, -40(%rbp)
	movq	%rcx, -48(%rbp)
	movq	-40(%rbp), %rax
	movq	-48(%rbp), %rcx
	movq	%rax, -24(%rbp)
	movq	%rcx, -32(%rbp)
	movq	-24(%rbp), %rcx
	movq	-32(%rbp), %rdx
	movl	(%rdx), %esi
	movl	%esi, (%rcx)
	movq	-32(%rbp), %rdx
	movl	4(%rdx), %esi
	movl	%esi, 4(%rcx)
	movq	-48(%rbp), %rcx
	movl	8(%rcx), %esi
	movl	%esi, 8(%rax)
	movq	-296(%rbp), %rax
	movq	%rax, -264(%rbp)
## BB#17:                               ##   in Loop: Header=BB15_16 Depth=2
	xorl	%eax, %eax
	movb	%al, %cl
	movq	-264(%rbp), %rdx
	cmpq	-240(%rbp), %rdx
	movb	%cl, -315(%rbp)         ## 1-byte Spill
	je	LBB15_31
## BB#18:                               ##   in Loop: Header=BB15_16 Depth=2
	movb	$1, %al
	leaq	-288(%rbp), %rcx
	movq	-256(%rbp), %rdx
	movq	-296(%rbp), %rsi
	addq	$-12, %rsi
	movq	%rsi, -296(%rbp)
	movq	%rdx, -104(%rbp)
	movq	%rcx, -112(%rbp)
	movq	%rsi, -120(%rbp)
	movq	-112(%rbp), %rcx
	movq	-120(%rbp), %rdx
	movq	%rcx, -88(%rbp)
	movq	%rdx, -96(%rbp)
	movq	-88(%rbp), %rcx
	movq	-96(%rbp), %rdx
	movq	%rcx, -72(%rbp)
	movq	%rdx, -80(%rbp)
	movq	-72(%rbp), %rcx
	movl	(%rcx), %edi
	movq	-80(%rbp), %rcx
	cmpl	(%rcx), %edi
	movb	%al, -316(%rbp)         ## 1-byte Spill
	jl	LBB15_22
## BB#19:                               ##   in Loop: Header=BB15_16 Depth=2
	xorl	%eax, %eax
	movb	%al, %cl
	movq	-80(%rbp), %rdx
	movl	(%rdx), %eax
	movq	-72(%rbp), %rdx
	cmpl	(%rdx), %eax
	movb	%cl, -317(%rbp)         ## 1-byte Spill
	jl	LBB15_21
## BB#20:                               ##   in Loop: Header=BB15_16 Depth=2
	movq	-72(%rbp), %rax
	movl	4(%rax), %ecx
	movq	-80(%rbp), %rax
	cmpl	4(%rax), %ecx
	setl	%dl
	movb	%dl, -317(%rbp)         ## 1-byte Spill
LBB15_21:                               ##   in Loop: Header=BB15_16 Depth=2
	movb	-317(%rbp), %al         ## 1-byte Reload
	movb	%al, -316(%rbp)         ## 1-byte Spill
LBB15_22:                               ## %_ZNSt3__1ltIiiEEbRKNS_4pairIT_T0_EES6_.exit.i.i.1
                                        ##   in Loop: Header=BB15_16 Depth=2
	movb	-316(%rbp), %al         ## 1-byte Reload
	movb	$1, %cl
	testb	$1, %al
	movb	%cl, -318(%rbp)         ## 1-byte Spill
	jne	LBB15_30
## BB#23:                               ##   in Loop: Header=BB15_16 Depth=2
	movb	$1, %al
	movq	-96(%rbp), %rcx
	movq	-88(%rbp), %rdx
	movq	%rcx, -56(%rbp)
	movq	%rdx, -64(%rbp)
	movq	-56(%rbp), %rcx
	movl	(%rcx), %esi
	movq	-64(%rbp), %rcx
	cmpl	(%rcx), %esi
	movb	%al, -319(%rbp)         ## 1-byte Spill
	jl	LBB15_27
## BB#24:                               ##   in Loop: Header=BB15_16 Depth=2
	xorl	%eax, %eax
	movb	%al, %cl
	movq	-64(%rbp), %rdx
	movl	(%rdx), %eax
	movq	-56(%rbp), %rdx
	cmpl	(%rdx), %eax
	movb	%cl, -320(%rbp)         ## 1-byte Spill
	jl	LBB15_26
## BB#25:                               ##   in Loop: Header=BB15_16 Depth=2
	movq	-56(%rbp), %rax
	movl	4(%rax), %ecx
	movq	-64(%rbp), %rax
	cmpl	4(%rax), %ecx
	setl	%dl
	movb	%dl, -320(%rbp)         ## 1-byte Spill
LBB15_26:                               ##   in Loop: Header=BB15_16 Depth=2
	movb	-320(%rbp), %al         ## 1-byte Reload
	movb	%al, -319(%rbp)         ## 1-byte Spill
LBB15_27:                               ## %_ZNSt3__1ltIiiEEbRKNS_4pairIT_T0_EES6_.exit1.i.i.2
                                        ##   in Loop: Header=BB15_16 Depth=2
	movb	-319(%rbp), %al         ## 1-byte Reload
	xorl	%ecx, %ecx
	movb	%cl, %dl
	testb	$1, %al
	movb	%dl, -321(%rbp)         ## 1-byte Spill
	jne	LBB15_29
## BB#28:                               ##   in Loop: Header=BB15_16 Depth=2
	movq	-88(%rbp), %rax
	movl	8(%rax), %ecx
	movq	-96(%rbp), %rax
	cmpl	8(%rax), %ecx
	setl	%dl
	movb	%dl, -321(%rbp)         ## 1-byte Spill
LBB15_29:                               ##   in Loop: Header=BB15_16 Depth=2
	movb	-321(%rbp), %al         ## 1-byte Reload
	movb	%al, -318(%rbp)         ## 1-byte Spill
LBB15_30:                               ## %_ZNKSt3__16__lessINS_4pairINS1_IiiEEiEES3_EclERKS3_S6_.exit3
                                        ##   in Loop: Header=BB15_16 Depth=2
	movb	-318(%rbp), %al         ## 1-byte Reload
	movb	%al, -315(%rbp)         ## 1-byte Spill
LBB15_31:                               ##   in Loop: Header=BB15_16 Depth=2
	movb	-315(%rbp), %al         ## 1-byte Reload
	testb	$1, %al
	jne	LBB15_16
## BB#32:                               ##   in Loop: Header=BB15_1 Depth=1
	leaq	-288(%rbp), %rax
	movq	-264(%rbp), %rcx
	movq	%rax, -128(%rbp)
	movq	-128(%rbp), %rax
	movq	%rcx, -152(%rbp)
	movq	%rax, -160(%rbp)
	movq	-152(%rbp), %rax
	movq	-160(%rbp), %rcx
	movq	%rax, -136(%rbp)
	movq	%rcx, -144(%rbp)
	movq	-136(%rbp), %rcx
	movq	-144(%rbp), %rdx
	movl	(%rdx), %esi
	movl	%esi, (%rcx)
	movq	-144(%rbp), %rdx
	movl	4(%rdx), %esi
	movl	%esi, 4(%rcx)
	movq	-160(%rbp), %rcx
	movl	8(%rcx), %esi
	movl	%esi, 8(%rax)
LBB15_33:                               ##   in Loop: Header=BB15_1 Depth=1
	movq	-272(%rbp), %rax
	movq	%rax, -264(%rbp)
## BB#34:                               ##   in Loop: Header=BB15_1 Depth=1
	movq	-272(%rbp), %rax
	addq	$12, %rax
	movq	%rax, -272(%rbp)
	jmp	LBB15_1
LBB15_35:
	addq	$336, %rsp              ## imm = 0x150
	popq	%rbp
	retq
	.cfi_endproc

	.globl	__ZNSt3__127__insertion_sort_incompleteIRNS_6__lessINS_4pairINS2_IiiEEiEES4_EEPS4_EEbT0_S8_T_
	.weak_def_can_be_hidden	__ZNSt3__127__insertion_sort_incompleteIRNS_6__lessINS_4pairINS2_IiiEEiEES4_EEPS4_EEbT0_S8_T_
	.align	4, 0x90
__ZNSt3__127__insertion_sort_incompleteIRNS_6__lessINS_4pairINS2_IiiEEiEES4_EEPS4_EEbT0_S8_T_: ## @_ZNSt3__127__insertion_sort_incompleteIRNS_6__lessINS_4pairINS2_IiiEEiEES4_EEPS4_EEbT0_S8_T_
	.cfi_startproc
## BB#0:
	pushq	%rbp
Ltmp53:
	.cfi_def_cfa_offset 16
Ltmp54:
	.cfi_offset %rbp, -16
	movq	%rsp, %rbp
Ltmp55:
	.cfi_def_cfa_register %rbp
	subq	$752, %rsp              ## imm = 0x2F0
	movq	%rdi, -592(%rbp)
	movq	%rsi, -600(%rbp)
	movq	%rdx, -608(%rbp)
	movq	-600(%rbp), %rdx
	movq	-592(%rbp), %rsi
	subq	%rsi, %rdx
	sarq	$2, %rdx
	movabsq	$-6148914691236517205, %rsi ## imm = 0xAAAAAAAAAAAAAAAB
	imulq	%rsi, %rdx
	movq	%rdx, %rsi
	subq	$5, %rsi
	movq	%rdx, -664(%rbp)        ## 8-byte Spill
	movq	%rsi, -672(%rbp)        ## 8-byte Spill
	ja	LBB16_20
## BB#59:
	leaq	LJTI16_0(%rip), %rax
	movq	-664(%rbp), %rcx        ## 8-byte Reload
	movslq	(%rax,%rcx,4), %rdx
	addq	%rax, %rdx
	jmpq	*%rdx
LBB16_1:
	movb	$1, -577(%rbp)
	jmp	LBB16_58
LBB16_2:
	movb	$1, %al
	movq	-608(%rbp), %rcx
	movq	-600(%rbp), %rdx
	addq	$-12, %rdx
	movq	%rdx, -600(%rbp)
	movq	-592(%rbp), %rsi
	movq	%rcx, -560(%rbp)
	movq	%rdx, -568(%rbp)
	movq	%rsi, -576(%rbp)
	movq	-568(%rbp), %rcx
	movq	-576(%rbp), %rdx
	movq	%rcx, -544(%rbp)
	movq	%rdx, -552(%rbp)
	movq	-544(%rbp), %rcx
	movq	-552(%rbp), %rdx
	movq	%rcx, -528(%rbp)
	movq	%rdx, -536(%rbp)
	movq	-528(%rbp), %rcx
	movl	(%rcx), %edi
	movq	-536(%rbp), %rcx
	cmpl	(%rcx), %edi
	movb	%al, -673(%rbp)         ## 1-byte Spill
	jl	LBB16_6
## BB#3:
	xorl	%eax, %eax
	movb	%al, %cl
	movq	-536(%rbp), %rdx
	movl	(%rdx), %eax
	movq	-528(%rbp), %rdx
	cmpl	(%rdx), %eax
	movb	%cl, -674(%rbp)         ## 1-byte Spill
	jl	LBB16_5
## BB#4:
	movq	-528(%rbp), %rax
	movl	4(%rax), %ecx
	movq	-536(%rbp), %rax
	cmpl	4(%rax), %ecx
	setl	%dl
	movb	%dl, -674(%rbp)         ## 1-byte Spill
LBB16_5:
	movb	-674(%rbp), %al         ## 1-byte Reload
	movb	%al, -673(%rbp)         ## 1-byte Spill
LBB16_6:                                ## %_ZNSt3__1ltIiiEEbRKNS_4pairIT_T0_EES6_.exit.i.i
	movb	-673(%rbp), %al         ## 1-byte Reload
	movb	$1, %cl
	testb	$1, %al
	movb	%cl, -675(%rbp)         ## 1-byte Spill
	jne	LBB16_14
## BB#7:
	movb	$1, %al
	movq	-552(%rbp), %rcx
	movq	-544(%rbp), %rdx
	movq	%rcx, -512(%rbp)
	movq	%rdx, -520(%rbp)
	movq	-512(%rbp), %rcx
	movl	(%rcx), %esi
	movq	-520(%rbp), %rcx
	cmpl	(%rcx), %esi
	movb	%al, -676(%rbp)         ## 1-byte Spill
	jl	LBB16_11
## BB#8:
	xorl	%eax, %eax
	movb	%al, %cl
	movq	-520(%rbp), %rdx
	movl	(%rdx), %eax
	movq	-512(%rbp), %rdx
	cmpl	(%rdx), %eax
	movb	%cl, -677(%rbp)         ## 1-byte Spill
	jl	LBB16_10
## BB#9:
	movq	-512(%rbp), %rax
	movl	4(%rax), %ecx
	movq	-520(%rbp), %rax
	cmpl	4(%rax), %ecx
	setl	%dl
	movb	%dl, -677(%rbp)         ## 1-byte Spill
LBB16_10:
	movb	-677(%rbp), %al         ## 1-byte Reload
	movb	%al, -676(%rbp)         ## 1-byte Spill
LBB16_11:                               ## %_ZNSt3__1ltIiiEEbRKNS_4pairIT_T0_EES6_.exit1.i.i
	movb	-676(%rbp), %al         ## 1-byte Reload
	xorl	%ecx, %ecx
	movb	%cl, %dl
	testb	$1, %al
	movb	%dl, -678(%rbp)         ## 1-byte Spill
	jne	LBB16_13
## BB#12:
	movq	-544(%rbp), %rax
	movl	8(%rax), %ecx
	movq	-552(%rbp), %rax
	cmpl	8(%rax), %ecx
	setl	%dl
	movb	%dl, -678(%rbp)         ## 1-byte Spill
LBB16_13:
	movb	-678(%rbp), %al         ## 1-byte Reload
	movb	%al, -675(%rbp)         ## 1-byte Spill
LBB16_14:                               ## %_ZNKSt3__16__lessINS_4pairINS1_IiiEEiEES3_EclERKS3_S6_.exit
	movb	-675(%rbp), %al         ## 1-byte Reload
	testb	$1, %al
	jne	LBB16_15
	jmp	LBB16_16
LBB16_15:
	leaq	-44(%rbp), %rax
	leaq	-108(%rbp), %rcx
	leaq	-172(%rbp), %rdx
	movq	-592(%rbp), %rsi
	movq	-600(%rbp), %rdi
	movq	%rsi, -264(%rbp)
	movq	%rdi, -272(%rbp)
	movq	-264(%rbp), %rsi
	movq	-272(%rbp), %rdi
	movq	%rsi, -248(%rbp)
	movq	%rdi, -256(%rbp)
	movq	-248(%rbp), %rsi
	movq	-256(%rbp), %rdi
	movq	%rsi, -232(%rbp)
	movq	%rdi, -240(%rbp)
	movq	-232(%rbp), %rdi
	movq	-240(%rbp), %r8
	movq	%rdi, -216(%rbp)
	movq	%r8, -224(%rbp)
	movq	-216(%rbp), %rdi
	movq	-224(%rbp), %r8
	movq	%rdi, -200(%rbp)
	movq	%r8, -208(%rbp)
	movq	-200(%rbp), %rdi
	movq	-208(%rbp), %r8
	movq	%rdi, -184(%rbp)
	movq	%r8, -192(%rbp)
	movq	-184(%rbp), %r8
	movq	-192(%rbp), %r9
	movq	%r8, -160(%rbp)
	movq	%r9, -168(%rbp)
	movq	-160(%rbp), %r8
	movq	%r8, -152(%rbp)
	movq	-152(%rbp), %r8
	movl	(%r8), %r10d
	movl	%r10d, -172(%rbp)
	movq	-168(%rbp), %r8
	movq	%r8, -136(%rbp)
	movq	-136(%rbp), %r8
	movl	(%r8), %r10d
	movq	-160(%rbp), %r8
	movl	%r10d, (%r8)
	movq	%rdx, -144(%rbp)
	movq	-144(%rbp), %rdx
	movl	(%rdx), %r10d
	movq	-168(%rbp), %rdx
	movl	%r10d, (%rdx)
	addq	$4, %rdi
	movq	-208(%rbp), %rdx
	addq	$4, %rdx
	movq	%rdi, -120(%rbp)
	movq	%rdx, -128(%rbp)
	movq	-120(%rbp), %rdx
	movq	-128(%rbp), %rdi
	movq	%rdx, -96(%rbp)
	movq	%rdi, -104(%rbp)
	movq	-96(%rbp), %rdx
	movq	%rdx, -88(%rbp)
	movq	-88(%rbp), %rdx
	movl	(%rdx), %r10d
	movl	%r10d, -108(%rbp)
	movq	-104(%rbp), %rdx
	movq	%rdx, -72(%rbp)
	movq	-72(%rbp), %rdx
	movl	(%rdx), %r10d
	movq	-96(%rbp), %rdx
	movl	%r10d, (%rdx)
	movq	%rcx, -80(%rbp)
	movq	-80(%rbp), %rcx
	movl	(%rcx), %r10d
	movq	-104(%rbp), %rcx
	movl	%r10d, (%rcx)
	addq	$8, %rsi
	movq	-256(%rbp), %rcx
	addq	$8, %rcx
	movq	%rsi, -56(%rbp)
	movq	%rcx, -64(%rbp)
	movq	-56(%rbp), %rcx
	movq	-64(%rbp), %rdx
	movq	%rcx, -32(%rbp)
	movq	%rdx, -40(%rbp)
	movq	-32(%rbp), %rcx
	movq	%rcx, -24(%rbp)
	movq	-24(%rbp), %rcx
	movl	(%rcx), %r10d
	movl	%r10d, -44(%rbp)
	movq	-40(%rbp), %rcx
	movq	%rcx, -8(%rbp)
	movq	-8(%rbp), %rcx
	movl	(%rcx), %r10d
	movq	-32(%rbp), %rcx
	movl	%r10d, (%rcx)
	movq	%rax, -16(%rbp)
	movq	-16(%rbp), %rax
	movl	(%rax), %r10d
	movq	-40(%rbp), %rax
	movl	%r10d, (%rax)
LBB16_16:
	movb	$1, -577(%rbp)
	jmp	LBB16_58
LBB16_17:
	movq	-592(%rbp), %rdi
	movq	-592(%rbp), %rax
	addq	$12, %rax
	movq	-600(%rbp), %rcx
	addq	$-12, %rcx
	movq	%rcx, -600(%rbp)
	movq	-608(%rbp), %rdx
	movq	%rax, %rsi
	movq	%rdx, -688(%rbp)        ## 8-byte Spill
	movq	%rcx, %rdx
	movq	-688(%rbp), %rcx        ## 8-byte Reload
	callq	__ZNSt3__17__sort3IRNS_6__lessINS_4pairINS2_IiiEEiEES4_EEPS4_EEjT0_S8_S8_T_
	movb	$1, -577(%rbp)
	movl	%eax, -692(%rbp)        ## 4-byte Spill
	jmp	LBB16_58
LBB16_18:
	movq	-592(%rbp), %rdi
	movq	-592(%rbp), %rax
	addq	$12, %rax
	movq	-592(%rbp), %rcx
	addq	$24, %rcx
	movq	-600(%rbp), %rdx
	addq	$-12, %rdx
	movq	%rdx, -600(%rbp)
	movq	-608(%rbp), %r8
	movq	%rax, %rsi
	movq	%rdx, -704(%rbp)        ## 8-byte Spill
	movq	%rcx, %rdx
	movq	-704(%rbp), %rcx        ## 8-byte Reload
	callq	__ZNSt3__17__sort4IRNS_6__lessINS_4pairINS2_IiiEEiEES4_EEPS4_EEjT0_S8_S8_S8_T_
	movb	$1, -577(%rbp)
	movl	%eax, -708(%rbp)        ## 4-byte Spill
	jmp	LBB16_58
LBB16_19:
	movq	-592(%rbp), %rdi
	movq	-592(%rbp), %rax
	addq	$12, %rax
	movq	-592(%rbp), %rcx
	addq	$24, %rcx
	movq	-592(%rbp), %rdx
	addq	$36, %rdx
	movq	-600(%rbp), %rsi
	addq	$-12, %rsi
	movq	%rsi, -600(%rbp)
	movq	-608(%rbp), %r9
	movq	%rsi, -720(%rbp)        ## 8-byte Spill
	movq	%rax, %rsi
	movq	%rdx, -728(%rbp)        ## 8-byte Spill
	movq	%rcx, %rdx
	movq	-728(%rbp), %rcx        ## 8-byte Reload
	movq	-720(%rbp), %r8         ## 8-byte Reload
	callq	__ZNSt3__17__sort5IRNS_6__lessINS_4pairINS2_IiiEEiEES4_EEPS4_EEjT0_S8_S8_S8_S8_T_
	movb	$1, -577(%rbp)
	movl	%eax, -732(%rbp)        ## 4-byte Spill
	jmp	LBB16_58
LBB16_20:
	movq	-592(%rbp), %rax
	addq	$24, %rax
	movq	%rax, -616(%rbp)
	movq	-592(%rbp), %rdi
	movq	-592(%rbp), %rax
	addq	$12, %rax
	movq	-616(%rbp), %rdx
	movq	-608(%rbp), %rcx
	movq	%rax, %rsi
	callq	__ZNSt3__17__sort3IRNS_6__lessINS_4pairINS2_IiiEEiEES4_EEPS4_EEjT0_S8_S8_T_
	movl	$8, -620(%rbp)
	movl	$0, -624(%rbp)
	movq	-616(%rbp), %rcx
	addq	$12, %rcx
	movq	%rcx, -632(%rbp)
	movl	%eax, -736(%rbp)        ## 4-byte Spill
LBB16_21:                               ## =>This Loop Header: Depth=1
                                        ##     Child Loop BB16_36 Depth 2
	movq	-632(%rbp), %rax
	cmpq	-600(%rbp), %rax
	je	LBB16_57
## BB#22:                               ##   in Loop: Header=BB16_21 Depth=1
	movb	$1, %al
	movq	-608(%rbp), %rcx
	movq	-632(%rbp), %rdx
	movq	-616(%rbp), %rsi
	movq	%rcx, -328(%rbp)
	movq	%rdx, -336(%rbp)
	movq	%rsi, -344(%rbp)
	movq	-336(%rbp), %rcx
	movq	-344(%rbp), %rdx
	movq	%rcx, -312(%rbp)
	movq	%rdx, -320(%rbp)
	movq	-312(%rbp), %rcx
	movq	-320(%rbp), %rdx
	movq	%rcx, -296(%rbp)
	movq	%rdx, -304(%rbp)
	movq	-296(%rbp), %rcx
	movl	(%rcx), %edi
	movq	-304(%rbp), %rcx
	cmpl	(%rcx), %edi
	movb	%al, -737(%rbp)         ## 1-byte Spill
	jl	LBB16_26
## BB#23:                               ##   in Loop: Header=BB16_21 Depth=1
	xorl	%eax, %eax
	movb	%al, %cl
	movq	-304(%rbp), %rdx
	movl	(%rdx), %eax
	movq	-296(%rbp), %rdx
	cmpl	(%rdx), %eax
	movb	%cl, -738(%rbp)         ## 1-byte Spill
	jl	LBB16_25
## BB#24:                               ##   in Loop: Header=BB16_21 Depth=1
	movq	-296(%rbp), %rax
	movl	4(%rax), %ecx
	movq	-304(%rbp), %rax
	cmpl	4(%rax), %ecx
	setl	%dl
	movb	%dl, -738(%rbp)         ## 1-byte Spill
LBB16_25:                               ##   in Loop: Header=BB16_21 Depth=1
	movb	-738(%rbp), %al         ## 1-byte Reload
	movb	%al, -737(%rbp)         ## 1-byte Spill
LBB16_26:                               ## %_ZNSt3__1ltIiiEEbRKNS_4pairIT_T0_EES6_.exit.i.i.4
                                        ##   in Loop: Header=BB16_21 Depth=1
	movb	-737(%rbp), %al         ## 1-byte Reload
	movb	$1, %cl
	testb	$1, %al
	movb	%cl, -739(%rbp)         ## 1-byte Spill
	jne	LBB16_34
## BB#27:                               ##   in Loop: Header=BB16_21 Depth=1
	movb	$1, %al
	movq	-320(%rbp), %rcx
	movq	-312(%rbp), %rdx
	movq	%rcx, -280(%rbp)
	movq	%rdx, -288(%rbp)
	movq	-280(%rbp), %rcx
	movl	(%rcx), %esi
	movq	-288(%rbp), %rcx
	cmpl	(%rcx), %esi
	movb	%al, -740(%rbp)         ## 1-byte Spill
	jl	LBB16_31
## BB#28:                               ##   in Loop: Header=BB16_21 Depth=1
	xorl	%eax, %eax
	movb	%al, %cl
	movq	-288(%rbp), %rdx
	movl	(%rdx), %eax
	movq	-280(%rbp), %rdx
	cmpl	(%rdx), %eax
	movb	%cl, -741(%rbp)         ## 1-byte Spill
	jl	LBB16_30
## BB#29:                               ##   in Loop: Header=BB16_21 Depth=1
	movq	-280(%rbp), %rax
	movl	4(%rax), %ecx
	movq	-288(%rbp), %rax
	cmpl	4(%rax), %ecx
	setl	%dl
	movb	%dl, -741(%rbp)         ## 1-byte Spill
LBB16_30:                               ##   in Loop: Header=BB16_21 Depth=1
	movb	-741(%rbp), %al         ## 1-byte Reload
	movb	%al, -740(%rbp)         ## 1-byte Spill
LBB16_31:                               ## %_ZNSt3__1ltIiiEEbRKNS_4pairIT_T0_EES6_.exit1.i.i.5
                                        ##   in Loop: Header=BB16_21 Depth=1
	movb	-740(%rbp), %al         ## 1-byte Reload
	xorl	%ecx, %ecx
	movb	%cl, %dl
	testb	$1, %al
	movb	%dl, -742(%rbp)         ## 1-byte Spill
	jne	LBB16_33
## BB#32:                               ##   in Loop: Header=BB16_21 Depth=1
	movq	-312(%rbp), %rax
	movl	8(%rax), %ecx
	movq	-320(%rbp), %rax
	cmpl	8(%rax), %ecx
	setl	%dl
	movb	%dl, -742(%rbp)         ## 1-byte Spill
LBB16_33:                               ##   in Loop: Header=BB16_21 Depth=1
	movb	-742(%rbp), %al         ## 1-byte Reload
	movb	%al, -739(%rbp)         ## 1-byte Spill
LBB16_34:                               ## %_ZNKSt3__16__lessINS_4pairINS1_IiiEEiEES3_EclERKS3_S6_.exit6
                                        ##   in Loop: Header=BB16_21 Depth=1
	movb	-739(%rbp), %al         ## 1-byte Reload
	testb	$1, %al
	jne	LBB16_35
	jmp	LBB16_55
LBB16_35:                               ##   in Loop: Header=BB16_21 Depth=1
	movq	-632(%rbp), %rax
	movq	%rax, -352(%rbp)
	movq	-352(%rbp), %rax
	movq	(%rax), %rcx
	movq	%rcx, -648(%rbp)
	movl	8(%rax), %edx
	movl	%edx, -640(%rbp)
	movq	-616(%rbp), %rax
	movq	%rax, -656(%rbp)
	movq	-632(%rbp), %rax
	movq	%rax, -616(%rbp)
LBB16_36:                               ##   Parent Loop BB16_21 Depth=1
                                        ## =>  This Inner Loop Header: Depth=2
	movq	-616(%rbp), %rax
	movq	-656(%rbp), %rcx
	movq	%rcx, -360(%rbp)
	movq	-360(%rbp), %rcx
	movq	%rax, -384(%rbp)
	movq	%rcx, -392(%rbp)
	movq	-384(%rbp), %rax
	movq	-392(%rbp), %rcx
	movq	%rax, -368(%rbp)
	movq	%rcx, -376(%rbp)
	movq	-368(%rbp), %rcx
	movq	-376(%rbp), %rdx
	movl	(%rdx), %esi
	movl	%esi, (%rcx)
	movq	-376(%rbp), %rdx
	movl	4(%rdx), %esi
	movl	%esi, 4(%rcx)
	movq	-392(%rbp), %rcx
	movl	8(%rcx), %esi
	movl	%esi, 8(%rax)
	movq	-656(%rbp), %rax
	movq	%rax, -616(%rbp)
## BB#37:                               ##   in Loop: Header=BB16_36 Depth=2
	xorl	%eax, %eax
	movb	%al, %cl
	movq	-616(%rbp), %rdx
	cmpq	-592(%rbp), %rdx
	movb	%cl, -743(%rbp)         ## 1-byte Spill
	je	LBB16_51
## BB#38:                               ##   in Loop: Header=BB16_36 Depth=2
	movb	$1, %al
	leaq	-648(%rbp), %rcx
	movq	-608(%rbp), %rdx
	movq	-656(%rbp), %rsi
	addq	$-12, %rsi
	movq	%rsi, -656(%rbp)
	movq	%rdx, -448(%rbp)
	movq	%rcx, -456(%rbp)
	movq	%rsi, -464(%rbp)
	movq	-456(%rbp), %rcx
	movq	-464(%rbp), %rdx
	movq	%rcx, -432(%rbp)
	movq	%rdx, -440(%rbp)
	movq	-432(%rbp), %rcx
	movq	-440(%rbp), %rdx
	movq	%rcx, -416(%rbp)
	movq	%rdx, -424(%rbp)
	movq	-416(%rbp), %rcx
	movl	(%rcx), %edi
	movq	-424(%rbp), %rcx
	cmpl	(%rcx), %edi
	movb	%al, -744(%rbp)         ## 1-byte Spill
	jl	LBB16_42
## BB#39:                               ##   in Loop: Header=BB16_36 Depth=2
	xorl	%eax, %eax
	movb	%al, %cl
	movq	-424(%rbp), %rdx
	movl	(%rdx), %eax
	movq	-416(%rbp), %rdx
	cmpl	(%rdx), %eax
	movb	%cl, -745(%rbp)         ## 1-byte Spill
	jl	LBB16_41
## BB#40:                               ##   in Loop: Header=BB16_36 Depth=2
	movq	-416(%rbp), %rax
	movl	4(%rax), %ecx
	movq	-424(%rbp), %rax
	cmpl	4(%rax), %ecx
	setl	%dl
	movb	%dl, -745(%rbp)         ## 1-byte Spill
LBB16_41:                               ##   in Loop: Header=BB16_36 Depth=2
	movb	-745(%rbp), %al         ## 1-byte Reload
	movb	%al, -744(%rbp)         ## 1-byte Spill
LBB16_42:                               ## %_ZNSt3__1ltIiiEEbRKNS_4pairIT_T0_EES6_.exit.i.i.1
                                        ##   in Loop: Header=BB16_36 Depth=2
	movb	-744(%rbp), %al         ## 1-byte Reload
	movb	$1, %cl
	testb	$1, %al
	movb	%cl, -746(%rbp)         ## 1-byte Spill
	jne	LBB16_50
## BB#43:                               ##   in Loop: Header=BB16_36 Depth=2
	movb	$1, %al
	movq	-440(%rbp), %rcx
	movq	-432(%rbp), %rdx
	movq	%rcx, -400(%rbp)
	movq	%rdx, -408(%rbp)
	movq	-400(%rbp), %rcx
	movl	(%rcx), %esi
	movq	-408(%rbp), %rcx
	cmpl	(%rcx), %esi
	movb	%al, -747(%rbp)         ## 1-byte Spill
	jl	LBB16_47
## BB#44:                               ##   in Loop: Header=BB16_36 Depth=2
	xorl	%eax, %eax
	movb	%al, %cl
	movq	-408(%rbp), %rdx
	movl	(%rdx), %eax
	movq	-400(%rbp), %rdx
	cmpl	(%rdx), %eax
	movb	%cl, -748(%rbp)         ## 1-byte Spill
	jl	LBB16_46
## BB#45:                               ##   in Loop: Header=BB16_36 Depth=2
	movq	-400(%rbp), %rax
	movl	4(%rax), %ecx
	movq	-408(%rbp), %rax
	cmpl	4(%rax), %ecx
	setl	%dl
	movb	%dl, -748(%rbp)         ## 1-byte Spill
LBB16_46:                               ##   in Loop: Header=BB16_36 Depth=2
	movb	-748(%rbp), %al         ## 1-byte Reload
	movb	%al, -747(%rbp)         ## 1-byte Spill
LBB16_47:                               ## %_ZNSt3__1ltIiiEEbRKNS_4pairIT_T0_EES6_.exit1.i.i.2
                                        ##   in Loop: Header=BB16_36 Depth=2
	movb	-747(%rbp), %al         ## 1-byte Reload
	xorl	%ecx, %ecx
	movb	%cl, %dl
	testb	$1, %al
	movb	%dl, -749(%rbp)         ## 1-byte Spill
	jne	LBB16_49
## BB#48:                               ##   in Loop: Header=BB16_36 Depth=2
	movq	-432(%rbp), %rax
	movl	8(%rax), %ecx
	movq	-440(%rbp), %rax
	cmpl	8(%rax), %ecx
	setl	%dl
	movb	%dl, -749(%rbp)         ## 1-byte Spill
LBB16_49:                               ##   in Loop: Header=BB16_36 Depth=2
	movb	-749(%rbp), %al         ## 1-byte Reload
	movb	%al, -746(%rbp)         ## 1-byte Spill
LBB16_50:                               ## %_ZNKSt3__16__lessINS_4pairINS1_IiiEEiEES3_EclERKS3_S6_.exit3
                                        ##   in Loop: Header=BB16_36 Depth=2
	movb	-746(%rbp), %al         ## 1-byte Reload
	movb	%al, -743(%rbp)         ## 1-byte Spill
LBB16_51:                               ##   in Loop: Header=BB16_36 Depth=2
	movb	-743(%rbp), %al         ## 1-byte Reload
	testb	$1, %al
	jne	LBB16_36
## BB#52:                               ##   in Loop: Header=BB16_21 Depth=1
	leaq	-648(%rbp), %rax
	movq	-616(%rbp), %rcx
	movq	%rax, -472(%rbp)
	movq	-472(%rbp), %rax
	movq	%rcx, -496(%rbp)
	movq	%rax, -504(%rbp)
	movq	-496(%rbp), %rax
	movq	-504(%rbp), %rcx
	movq	%rax, -480(%rbp)
	movq	%rcx, -488(%rbp)
	movq	-480(%rbp), %rcx
	movq	-488(%rbp), %rdx
	movl	(%rdx), %esi
	movl	%esi, (%rcx)
	movq	-488(%rbp), %rdx
	movl	4(%rdx), %esi
	movl	%esi, 4(%rcx)
	movq	-504(%rbp), %rcx
	movl	8(%rcx), %esi
	movl	%esi, 8(%rax)
	movl	-624(%rbp), %esi
	addl	$1, %esi
	movl	%esi, -624(%rbp)
	cmpl	$8, %esi
	jne	LBB16_54
## BB#53:
	movq	-632(%rbp), %rax
	addq	$12, %rax
	movq	%rax, -632(%rbp)
	cmpq	-600(%rbp), %rax
	sete	%cl
	andb	$1, %cl
	movb	%cl, -577(%rbp)
	jmp	LBB16_58
LBB16_54:                               ##   in Loop: Header=BB16_21 Depth=1
	jmp	LBB16_55
LBB16_55:                               ##   in Loop: Header=BB16_21 Depth=1
	movq	-632(%rbp), %rax
	movq	%rax, -616(%rbp)
## BB#56:                               ##   in Loop: Header=BB16_21 Depth=1
	movq	-632(%rbp), %rax
	addq	$12, %rax
	movq	%rax, -632(%rbp)
	jmp	LBB16_21
LBB16_57:
	movb	$1, -577(%rbp)
LBB16_58:
	movb	-577(%rbp), %al
	andb	$1, %al
	movzbl	%al, %eax
	addq	$752, %rsp              ## imm = 0x2F0
	popq	%rbp
	retq
	.cfi_endproc
	.align	2, 0x90
L16_0_set_1 = LBB16_1-LJTI16_0
L16_0_set_2 = LBB16_2-LJTI16_0
L16_0_set_17 = LBB16_17-LJTI16_0
L16_0_set_18 = LBB16_18-LJTI16_0
L16_0_set_19 = LBB16_19-LJTI16_0
LJTI16_0:
	.long	L16_0_set_1
	.long	L16_0_set_1
	.long	L16_0_set_2
	.long	L16_0_set_17
	.long	L16_0_set_18
	.long	L16_0_set_19

	.section	__TEXT,__StaticInit,regular,pure_instructions
	.align	4, 0x90
__GLOBAL__sub_I_4484.cpp:               ## @_GLOBAL__sub_I_4484.cpp
	.cfi_startproc
## BB#0:
	pushq	%rbp
Ltmp56:
	.cfi_def_cfa_offset 16
Ltmp57:
	.cfi_offset %rbp, -16
	movq	%rsp, %rbp
Ltmp58:
	.cfi_def_cfa_register %rbp
	callq	___cxx_global_var_init
	callq	___cxx_global_var_init.1
	popq	%rbp
	retq
	.cfi_endproc

	.globl	_s                      ## @s
.zerofill __DATA,__common,_s,102000,4
	.globl	_n                      ## @n
.zerofill __DATA,__common,_n,4,2
	.globl	_rk                     ## @rk
.zerofill __DATA,__common,_rk,408000,4
	.globl	_sa                     ## @sa
.zerofill __DATA,__common,_sa,408000,4
	.globl	_ht                     ## @ht
.zerofill __DATA,__common,_ht,408000,4
	.globl	_r                      ## @r
.zerofill __DATA,__common,_r,408000,4
	.globl	_pro                    ## @pro
.zerofill __DATA,__common,_pro,408000,4
	.globl	_pos                    ## @pos
.zerofill __DATA,__common,_pos,1224000,4
	.globl	_vec                    ## @vec
.zerofill __DATA,__common,_vec,2448000,4
	.section	__TEXT,__cstring,cstring_literals
L_.str:                                 ## @.str
	.asciz	"%d"

L_.str.2:                               ## @.str.2
	.asciz	"%s"

L_.str.3:                               ## @.str.3
	.asciz	"%lld\n"

	.section	__DATA,__mod_init_func,mod_init_funcs
	.align	3
	.quad	__GLOBAL__sub_I_4484.cpp

.subsections_via_symbols
